(dp0
S'lord'
p1
(lp2
I2
aI2
asS'bringing'
p3
(lp4
I4
aI4
asS'disturb'
p5
(lp6
I2
aI2
asS'inevitably'
p7
(lp8
I2
aI2
asS'elegant'
p9
(lp10
I7
aI7
asS'valiant'
p11
(lp12
I2
aI2
asS'fingers'
p13
(lp14
I2
aI2
asS'uplifting'
p15
(lp16
I5
aI5
asS"i'd"
p17
(lp18
I2
aI2
asS'psychological'
p19
(lp20
I16
aI16
asS'music'
p21
(lp22
I41
aI40
asS'successful'
p23
(lp24
I12
aI12
asS'brings'
p25
(lp26
I15
aI15
asS'mesmerize'
p27
(lp28
I2
aI2
asS'exuberantly'
p29
(lp30
I2
aI2
asS'95'
p31
(lp32
I3
aI3
asS'huppert'
p33
(lp34
I5
aI5
asS'absolute'
p35
(lp36
I3
aI3
asS'travel'
p37
(lp38
I5
aI5
asS'feature'
p39
(lp40
I25
aI25
asS'hot'
p41
(lp42
I2
aI2
asS'retooled'
p43
(lp44
I2
aI2
asS'significance'
p45
(lp46
I2
aI2
asS'beauty'
p47
(lp48
I14
aI14
asS'funny'
p49
(lp50
I103
aI103
asS'effective'
p51
(lp52
I15
aI15
asS'alias'
p53
(lp54
I2
aI2
asS'democratic'
p55
(lp56
I2
aI2
asS'wind'
p57
(lp58
I4
aI4
asS'screaming'
p59
(lp60
I1
aI1
asS'survivors'
p61
(lp62
I2
aI2
asS'series'
p63
(lp64
I15
aI15
asS'smirk'
p65
(lp66
I2
aI2
asS'encourage'
p67
(lp68
I2
aI2
asS'assured'
p69
(lp70
I7
aI7
asS'necessarily'
p71
(lp72
I1
aI1
asS'similarly'
p73
(lp74
I2
aI2
asS'bitter'
p75
(lp76
I2
aI2
asS'rewards'
p77
(lp78
I4
aI4
asS'predictable'
p79
(lp80
I18
aI18
asS'spectrum'
p81
(lp82
I2
aI2
asS'recommended'
p83
(lp84
I2
aI2
asS'amusing'
p85
(lp86
I23
aI23
asS'y'
p87
(lp88
I18
aI11
asS'episode'
p89
(lp90
I2
aI2
asS'prim'
p91
(lp92
I2
aI2
asS'caper'
p93
(lp94
I7
aI7
asS'busy'
p95
(lp96
I1
aI1
asS'theme'
p97
(lp98
I6
aI6
asS'touched'
p99
(lp100
I4
aI4
asS'rich'
p101
(lp102
I16
aI16
asS'foremost'
p103
(lp104
I3
aI3
asS"chabrol's"
p105
(lp106
I3
aI3
asS'nicely'
p107
(lp108
I11
aI11
asS'greene'
p109
(lp110
I2
aI2
asS'openly'
p111
(lp112
I2
aI2
asS'disaster'
p113
(lp114
I1
aI1
asS'result'
p115
(lp116
I6
aI6
asS'best'
p117
(lp118
I103
aI100
asS'deadpan'
p119
(lp120
I6
aI6
asS'score'
p121
(lp122
I7
aI7
asS'discipline'
p123
(lp124
I2
aI2
asS'parallels'
p125
(lp126
I2
aI2
asS'pity'
p127
(lp128
I2
aI2
asS'argue'
p129
(lp130
I2
aI2
asS'retelling'
p131
(lp132
I2
aI2
asS'reconsideration'
p133
(lp134
I2
aI2
asS'much'
p135
(lp136
I93
aI92
asS'adroitly'
p137
(lp138
I3
aI3
asS'life'
p139
(lp140
I81
aI81
asS'filmmaker'
p141
(lp142
I22
aI22
asS'worked'
p143
(lp144
I1
aI1
asS'commerce'
p145
(lp146
I4
aI4
asS'participatory'
p147
(lp148
I2
aI2
asS'castro'
p149
(lp150
I3
aI3
asS'surprises'
p151
(lp152
I11
aI11
asS'specter'
p153
(lp154
I2
aI2
asS'credit'
p155
(lp156
I8
aI7
asS'things'
p157
(lp158
I19
aI19
asS'principals'
p159
(lp160
I3
aI3
asS'inadvertently'
p161
(lp162
I2
aI2
asS'preachy'
p163
(lp164
I1
aI1
asS'lucas'
p165
(lp166
I4
aI4
asS'feel good'
p167
(lp168
I5
aI5
asS'unique'
p169
(lp170
I10
aI10
asS'd'
p171
(lp172
I3
aI3
asS'seaside'
p173
(lp174
I2
aI2
asS'creep'
p175
(lp176
I2
aI2
asS'creative'
p177
(lp178
I11
aI11
asS'witty'
p179
(lp180
I15
aI15
asS'sci fi'
p181
(lp182
I1
aI1
asS'post'
p183
(lp184
I2
aI2
asS'starring'
p185
(lp186
I1
aI1
asS'transcends'
p187
(lp188
I2
aI2
asS'despair'
p189
(lp190
I6
aI6
asS'son'
p191
(lp192
I9
aI9
asS'beings'
p193
(lp194
I3
aI3
asS'humorous'
p195
(lp196
I8
aI8
asS'jaw droppingly'
p197
(lp198
I2
aI2
asS'happy'
p199
(lp200
I12
aI12
asS'proud'
p201
(lp202
I3
aI3
asS'proves'
p203
(lp204
I20
aI20
asS'ambitious'
p205
(lp206
I13
aI12
asS"rose's"
p207
(lp208
I2
aI2
asS'rolling'
p209
(lp210
I3
aI3
asS'breadth'
p211
(lp212
I3
aI3
asS'chain'
p213
(lp214
I3
aI3
asS'jarring'
p215
(lp216
I3
aI3
asS'uneven'
p217
(lp218
I4
aI4
asS'rousing'
p219
(lp220
I5
aI5
asS'tenacious'
p221
(lp222
I3
aI3
asS'engrossing'
p223
(lp224
I19
aI19
asS'team'
p225
(lp226
I2
aI2
asS'spiritual'
p227
(lp228
I7
aI7
asS'address'
p229
(lp230
I2
aI2
asS'brilliant'
p231
(lp232
I13
aI13
asS'accomplished'
p233
(lp234
I7
aI7
asS'love'
p235
(lp236
I92
aI88
asS'griffiths'
p237
(lp238
I2
aI2
asS'marvelous'
p239
(lp240
I6
aI6
asS'film]'
p241
(lp242
I3
aI3
asS'angry'
p243
(lp244
I2
aI2
asS'wondering'
p245
(lp246
I1
aI1
asS'films'
p247
(lp248
I58
aI58
asS'scope'
p249
(lp250
I5
aI5
asS'loving'
p251
(lp252
I5
aI5
asS'afford'
p253
(lp254
I2
aI2
asS'deserved'
p255
(lp256
I4
aI4
asS'believer'
p257
(lp258
I2
aI2
asS'believes'
p259
(lp260
I3
aI3
asS'zhao'
p261
(lp262
I2
aI2
asS'following'
p263
(lp264
I2
aI2
asS'detached'
p265
(lp266
I1
aI1
asS'unintentional'
p267
(lp268
I1
aI1
asS'savor'
p269
(lp270
I3
aI3
asS'loathe'
p271
(lp272
I2
aI2
asS'explores'
p273
(lp274
I5
aI5
asS'natural'
p275
(lp276
I10
aI10
asS'se'
p277
(lp278
I2
aI2
asS'kong'
p279
(lp280
I2
aI2
asS'episodes'
p281
(lp282
I1
aI1
asS'stupidity'
p283
(lp284
I1
aI1
asS'decades'
p285
(lp286
I11
aI11
asS'spectacularly'
p287
(lp288
I3
aI3
asS'smarter'
p289
(lp290
I7
aI7
asS'nation'
p291
(lp292
I3
aI3
asS'bowling'
p293
(lp294
I2
aI2
asS'veins'
p295
(lp296
I2
aI2
asS'midlife'
p297
(lp298
I3
aI3
asS'beloved'
p299
(lp300
I2
aI2
asS'seriously'
p301
(lp302
I3
aI3
asS'suggesting'
p303
(lp304
I2
aI2
asS'formula'
p305
(lp306
I9
aI9
asS'plotting'
p307
(lp308
I1
aI1
asS'intensely'
p309
(lp310
I4
aI4
asS'wrong'
p311
(lp312
I5
aI5
asS'tongue in cheek'
p313
(lp314
I3
aI3
asS'open'
p315
(lp316
I8
aI8
asS'slasher'
p317
(lp318
I1
aI1
asS'ridiculous'
p319
(lp320
I2
aI2
asS'rival'
p321
(lp322
I3
aI3
asS'future'
p323
(lp324
I6
aI6
asS'damned'
p325
(lp326
I2
aI2
asS'sumptuous'
p327
(lp328
I2
aI2
asS'turned'
p329
(lp330
I2
aI2
asS'saw'
p331
(lp332
I4
aI4
asS'take'
p333
(lp334
I41
aI40
asS'candidly'
p335
(lp336
I2
aI2
asS'tears'
p337
(lp338
I5
aI5
asS'guarded'
p339
(lp340
I2
aI2
asS'simplistic'
p341
(lp342
I3
aI3
asS'keenly'
p343
(lp344
I2
aI2
asS'vision'
p345
(lp346
I16
aI16
asS'impressions'
p347
(lp348
I3
aI3
asS'purest'
p349
(lp350
I2
aI2
asS'constraints'
p351
(lp352
I2
aI2
asS'intoxicating'
p353
(lp354
I6
aI6
asS'enlightening'
p355
(lp356
I3
aI3
asS'refreshed'
p357
(lp358
I2
aI2
asS'affecting'
p359
(lp360
I14
aI14
asS'paint by number'
p361
(lp362
I2
aI2
asS'panache'
p363
(lp364
I2
aI2
asS'lagaan'
p365
(lp366
I2
aI2
asS'stoppard'
p367
(lp368
I2
aI2
asS'good natured'
p369
(lp370
I4
aI4
asS'spare'
p371
(lp372
I11
aI11
asS'moviemaking'
p373
(lp374
I8
aI8
asS'wickedly'
p375
(lp376
I4
aI4
asS'deliciously'
p377
(lp378
I4
aI4
asS'many'
p379
(lp380
I43
aI41
asS'workplace'
p381
(lp382
I2
aI2
asS"can't"
p383
(lp384
I32
aI32
asS'combines'
p385
(lp386
I5
aI5
asS'combined'
p387
(lp388
I5
aI5
asS'reflective'
p389
(lp390
I3
aI3
asS'ethical'
p391
(lp392
I2
aI2
asS'chan'
p393
(lp394
I1
aI1
asS'isabelle'
p395
(lp396
I2
aI2
asS'single'
p397
(lp398
I4
aI4
asS'aimlessness'
p399
(lp400
I2
aI2
asS'spotlight'
p401
(lp402
I3
aI3
asS'twisty'
p403
(lp404
I2
aI2
asS'engaged'
p405
(lp406
I5
aI5
asS'technology'
p407
(lp408
I6
aI6
asS'threatens'
p409
(lp410
I2
aI2
asS'visually'
p411
(lp412
I14
aI14
asS'cheery'
p413
(lp414
I2
aI2
asS'pacino'
p415
(lp416
I4
aI4
asS'pacing'
p417
(lp418
I3
aI3
asS'rip off'
p419
(lp420
I1
aI1
asS'summer'
p421
(lp422
I18
aI18
asS'grounded'
p423
(lp424
I3
aI3
asS'overview'
p425
(lp426
I2
aI2
asS'aspects'
p427
(lp428
I9
aI8
asS'unerring'
p429
(lp430
I2
aI2
asS'problemas'
p431
(lp432
I2
aI2
asS'dark'
p433
(lp434
I26
aI26
asS'world'
p435
(lp436
I47
aI47
asS'sensational'
p437
(lp438
I4
aI4
asS'two thirds'
p439
(lp440
I2
aI2
asS'endeavor'
p441
(lp442
I1
aI1
asS'riveting'
p443
(lp444
I11
aI11
asS'power'
p445
(lp446
I26
aI25
asS'intimate'
p447
(lp448
I13
aI13
asS'origins'
p449
(lp450
I2
aI2
asS'side'
p451
(lp452
I7
aI7
asS'flawed'
p453
(lp454
I13
aI13
asS'lively'
p455
(lp456
I9
aI9
asS'mindless'
p457
(lp458
I1
aI1
asS'complete'
p459
(lp460
I2
aI2
asS'beginners'
p461
(lp462
I2
aI2
asS'nachtwey'
p463
(lp464
I2
aI2
asS'rage'
p465
(lp466
I3
aI3
asS'politically'
p467
(lp468
I3
aI3
asS'detailed'
p469
(lp470
I10
aI10
asS'gone'
p471
(lp472
I6
aI5
asS'wildly'
p473
(lp474
I3
aI3
asS'bored'
p475
(lp476
I1
aI1
asS'nelson'
p477
(lp478
I2
aI2
asS'tv'
p479
(lp480
I4
aI4
asS'norm'
p481
(lp482
I2
aI2
asS'case'
p483
(lp484
I9
aI9
asS'illustrated'
p485
(lp486
I2
aI2
asS'polson'
p487
(lp488
I2
aI2
asS'pesky'
p489
(lp490
I2
aI2
asS'small'
p491
(lp492
I14
aI14
asS'displays'
p493
(lp494
I2
aI2
asS'offbeat'
p495
(lp496
I5
aI5
asS'revealing'
p497
(lp498
I9
aI9
asS'leaping'
p499
(lp500
I3
aI3
asS'melancholic'
p501
(lp502
I2
aI2
asS'vietnamese'
p503
(lp504
I2
aI2
asS'action'
p505
(lp506
I40
aI40
asS'sweetness'
p507
(lp508
I3
aI3
asS'vin'
p509
(lp510
I2
aI2
asS'pulls'
p511
(lp512
I11
aI11
asS'subculture'
p513
(lp514
I2
aI2
asS'gorgeous'
p515
(lp516
I19
aI19
asS'schweig'
p517
(lp518
I2
aI2
asS'company'
p519
(lp520
I8
aI8
asS'fatal'
p521
(lp522
I1
aI1
asS'beautiful'
p523
(lp524
I28
aI28
asS"scott's"
p525
(lp526
I2
aI2
asS'neglected'
p527
(lp528
I2
aI2
asS'accept'
p529
(lp530
I4
aI4
asS'fiercely'
p531
(lp532
I4
aI4
asS'weirdness'
p533
(lp534
I2
aI2
asS'creature'
p535
(lp536
I5
aI5
asS'waves'
p537
(lp538
I3
aI3
asS'ethics'
p539
(lp540
I2
aI2
asS'imagery'
p541
(lp542
I5
aI5
asS'loud'
p543
(lp544
I1
aI1
asS'leigh'
p545
(lp546
I4
aI4
asS"fincher's"
p547
(lp548
I2
aI2
asS'brim'
p549
(lp550
I2
aI2
asS'broadway'
p551
(lp552
I2
aI2
asS'wry'
p553
(lp554
I7
aI7
asS"movie's"
p555
(lp556
I15
aI14
asS'mesmerizing'
p557
(lp558
I11
aI11
asS'always'
p559
(lp560
I26
aI26
asS'events'
p561
(lp562
I11
aI11
asS'shocking'
p563
(lp564
I7
aI7
asS'reactions'
p565
(lp566
I2
aI2
asS'really'
p567
(lp568
I36
aI34
asS'try'
p569
(lp570
I3
aI3
asS'well edited'
p571
(lp572
I2
aI2
asS'imagine'
p573
(lp574
I4
aI4
asS'rises'
p575
(lp576
I2
aI2
asS"jie's"
p577
(lp578
I2
aI2
asS'delicate'
p579
(lp580
I10
aI10
asS'rooted'
p581
(lp582
I2
aI2
asS'guess'
p583
(lp584
I1
aI1
asS'introduction'
p585
(lp586
I2
aI2
asS'divertida'
p587
(lp588
I3
aI3
asS'relationship'
p589
(lp590
I12
aI11
asS'endlessly'
p591
(lp592
I6
aI6
asS'iranian'
p593
(lp594
I6
aI6
asS'marriage'
p595
(lp596
I6
aI6
asS'clear eyed'
p597
(lp598
I4
aI4
asS'also'
p599
(lp600
I58
aI57
asS'historic'
p601
(lp602
I2
aI2
asS'blended'
p603
(lp604
I2
aI2
asS'self discovery'
p605
(lp606
I3
aI3
asS'actress'
p607
(lp608
I11
aI11
asS'sleeve'
p609
(lp610
I2
aI2
asS'pleasures'
p611
(lp612
I9
aI9
asS'obscure'
p613
(lp614
I1
aI1
asS'weaves'
p615
(lp616
I2
aI2
asS'insane'
p617
(lp618
I2
aI2
asS'delicately'
p619
(lp620
I3
aI3
asS'potent'
p621
(lp622
I7
aI7
asS'spirits'
p623
(lp624
I5
aI5
asS'unsettling'
p625
(lp626
I13
aI13
asS'movie'
p627
(lp628
I297
aI285
asS'demons'
p629
(lp630
I4
aI4
asS'compliment'
p631
(lp632
I2
aI2
asS'dramatization'
p633
(lp634
I2
aI2
asS'incident'
p635
(lp636
I3
aI3
asS'barely'
p637
(lp638
I3
aI3
asS'whole'
p639
(lp640
I11
aI11
asS'sink'
p641
(lp642
I1
aI1
asS'leon'
p643
(lp644
I2
aI2
asS'hollow'
p645
(lp646
I1
aI1
asS'acceptance'
p647
(lp648
I2
aI2
asS'veneer'
p649
(lp650
I4
aI4
asS'champion'
p651
(lp652
I3
aI3
asS'great'
p653
(lp654
I57
aI56
asS'funk'
p655
(lp656
I2
aI2
asS'handling'
p657
(lp658
I2
aI2
asS'coppola'
p659
(lp660
I3
aI3
asS'errol'
p661
(lp662
I2
aI2
asS'straight'
p663
(lp664
I3
aI3
asS'budget'
p665
(lp666
I2
aI2
asS'beautifully'
p667
(lp668
I22
aI22
asS'cuisine'
p669
(lp670
I3
aI3
asS'spider man'
p671
(lp672
I5
aI5
asS'choking'
p673
(lp674
I2
aI2
asS'elevated'
p675
(lp676
I2
aI2
asS'virtually'
p677
(lp678
I1
aI1
asS'elevates'
p679
(lp680
I2
aI2
asS'forgiveness'
p681
(lp682
I3
aI3
asS'recent'
p683
(lp684
I17
aI17
asS'crackles'
p685
(lp686
I2
aI2
asS'surprised'
p687
(lp688
I3
aI3
asS'australia'
p689
(lp690
I3
aI2
asS'format'
p691
(lp692
I4
aI4
asS'emergence'
p693
(lp694
I2
aI2
asS'pertinent'
p695
(lp696
I2
aI2
asS'spins'
p697
(lp698
I2
aI2
asS'irresistible'
p699
(lp700
I5
aI5
asS'twinkle'
p701
(lp702
I2
aI2
asS'fast paced'
p703
(lp704
I2
aI2
asS"son's"
p705
(lp706
I3
aI3
asS'idealistic'
p707
(lp708
I2
aI2
asS'feelings'
p709
(lp710
I2
aI2
asS'clancy'
p711
(lp712
I2
aI2
asS'wildlife'
p713
(lp714
I2
aI2
asS'anything'
p715
(lp716
I15
aI15
asS'unnerving'
p717
(lp718
I4
aI4
asS'relaxed'
p719
(lp720
I2
aI2
asS'line'
p721
(lp722
I9
aI9
asS'us'
p723
(lp724
I83
aI79
asS'maturity'
p725
(lp726
I2
aI2
asS'oddity'
p727
(lp728
I2
aI2
asS'consigned'
p729
(lp730
I2
aI2
asS'diverse'
p731
(lp732
I3
aI3
asS'lived in'
p733
(lp734
I2
aI2
asS'defines'
p735
(lp736
I3
aI2
asS'elements'
p737
(lp738
I4
aI4
asS'sides'
p739
(lp740
I10
aI10
asS'ago'
p741
(lp742
I6
aI6
asS'lane'
p743
(lp744
I5
aI5
asS'walken'
p745
(lp746
I2
aI2
asS'menace'
p747
(lp748
I2
aI2
asS'scratch'
p749
(lp750
I6
aI4
asS'enjoyable'
p751
(lp752
I31
aI30
asS'screwed up'
p753
(lp754
I2
aI2
asS'send'
p755
(lp756
I1
aI1
asS'timely'
p757
(lp758
I7
aI7
asS'magic'
p759
(lp760
I14
aI14
asS'trite'
p761
(lp762
I1
aI1
asS'video'
p763
(lp764
I5
aI5
asS'consistently'
p765
(lp766
I8
aI7
asS'indian'
p767
(lp768
I5
aI5
asS'crowd pleasing'
p769
(lp770
I2
aI2
asS'scenery'
p771
(lp772
I5
aI5
asS'led'
p773
(lp774
I2
aI2
asS'delivering'
p775
(lp776
I7
aI7
asS'let'
p777
(lp778
I3
aI3
asS'sentimentality'
p779
(lp780
I1
aI1
asS'popcorn'
p781
(lp782
I10
aI10
asS'makes'
p783
(lp784
I88
aI87
asS'confidence'
p785
(lp786
I3
aI3
asS'next'
p787
(lp788
I7
aI7
asS'disarming'
p789
(lp790
I2
aI2
asS'depiction'
p791
(lp792
I7
aI7
asS'thin'
p793
(lp794
I2
aI2
asS"twohy's"
p795
(lp796
I2
aI2
asS'intelligent'
p797
(lp798
I28
aI28
asS'realized'
p799
(lp800
I1
aI1
asS'lame'
p801
(lp802
I2
aI2
asS'classy'
p803
(lp804
I2
aI2
asS'art house'
p805
(lp806
I2
aI2
asS'producer'
p807
(lp808
I3
aI3
asS'warren'
p809
(lp810
I2
aI2
asS'perfect'
p811
(lp812
I18
aI18
asS'tambi\xe9n'
p813
(lp814
I2
aI2
asS'recreating'
p815
(lp816
I2
aI2
asS'freaky'
p817
(lp818
I2
aI2
asS'delightful'
p819
(lp820
I15
aI15
asS'betty'
p821
(lp822
I4
aI4
asS'beneath'
p823
(lp824
I9
aI9
asS'traces'
p825
(lp826
I2
aI2
asS'enigmatic'
p827
(lp828
I3
aI3
asS'jagger'
p829
(lp830
I6
aI6
asS'thirteen'
p831
(lp832
I3
aI3
asS'tenth'
p833
(lp834
I2
aI2
asS'wander'
p835
(lp836
I2
aI2
asS'big screen'
p837
(lp838
I1
aI1
asS'superbly'
p839
(lp840
I2
aI2
asS'hilarious'
p841
(lp842
I18
aI18
asS'surely'
p843
(lp844
I1
aI1
asS'scary'
p845
(lp846
I7
aI7
asS'could'
p847
(lp848
I48
aI45
asS'chilly'
p849
(lp850
I7
aI7
asS'serenity'
p851
(lp852
I2
aI2
asS'scene'
p853
(lp854
I4
aI4
asS'owned'
p855
(lp856
I2
aI2
asS"wallace's"
p857
(lp858
I2
aI2
asS'ties'
p859
(lp860
I3
aI3
asS'exhilarating'
p861
(lp862
I8
aI8
asS'lot'
p863
(lp864
I23
aI22
asS'depressing'
p865
(lp866
I4
aI4
asS'unexpectedly'
p867
(lp868
I2
aI2
asS'appealing'
p869
(lp870
I16
aI16
asS'ingenious'
p871
(lp872
I7
aI7
asS'viewer'
p873
(lp874
I6
aI6
asS'gently'
p875
(lp876
I5
aI5
asS'reassuring'
p877
(lp878
I2
aI2
asS'gentle'
p879
(lp880
I10
aI10
asS'documents'
p881
(lp882
I2
aI2
asS'lilo'
p883
(lp884
I3
aI3
asS'korean'
p885
(lp886
I5
aI5
asS'seductive'
p887
(lp888
I4
aI4
asS'soap'
p889
(lp890
I3
aI3
asS'sophomoric'
p891
(lp892
I1
aI1
asS'face'
p893
(lp894
I20
aI19
asS'fact'
p895
(lp896
I5
aI5
asS'bring'
p897
(lp898
I12
aI12
asS'rouge'
p899
(lp900
I3
aI3
asS"haynes'"
p901
(lp902
I3
aI2
asS'decade'
p903
(lp904
I3
aI3
asS'taps'
p905
(lp906
I3
aI3
asS'means'
p907
(lp908
I10
aI10
asS'familial'
p909
(lp910
I5
aI5
asS'ends'
p911
(lp912
I8
aI8
asS'explosive'
p913
(lp914
I2
aI2
asS'thornberrys'
p915
(lp916
I4
aI4
asS'drum'
p917
(lp918
I3
aI3
asS'unflinching'
p919
(lp920
I6
aI6
asS'crafted'
p921
(lp922
I8
aI8
asS'cq'
p923
(lp924
I2
aI2
asS'winning'
p925
(lp926
I10
aI10
asS'dazzling'
p927
(lp928
I9
aI9
asS'pretentious'
p929
(lp930
I1
aI1
asS'surprisingly'
p931
(lp932
I29
aI29
asS'hardware'
p933
(lp934
I2
aI2
asS'optimistic'
p935
(lp936
I3
aI3
asS'tenor'
p937
(lp938
I3
aI3
asS'tattoo'
p939
(lp940
I2
aI2
asS'tupac'
p941
(lp942
I2
aI2
asS'unimaginable'
p943
(lp944
I2
aI2
asS'chaiken'
p945
(lp946
I3
aI3
asS'identity'
p947
(lp948
I12
aI12
asS'colour'
p949
(lp950
I2
aI2
asS'web'
p951
(lp952
I5
aI5
asS'combine'
p953
(lp954
I2
aI2
asS'become'
p955
(lp956
I12
aI12
asS'poor'
p957
(lp958
I1
aI1
asS'crudely'
p959
(lp960
I2
aI2
asS'grown up'
p961
(lp962
I4
aI4
asS'sister'
p963
(lp964
I3
aI3
asS'drumming'
p965
(lp966
I2
aI2
asS'puts'
p967
(lp968
I11
aI11
asS'seeds'
p969
(lp970
I3
aI3
asS'clooney'
p971
(lp972
I5
aI5
asS'documentary'
p973
(lp974
I52
aI52
asS"wiseman's"
p975
(lp976
I2
aI2
asS'catherine'
p977
(lp978
I2
aI2
asS'tiny'
p979
(lp980
I4
aI4
asS'housing'
p981
(lp982
I2
aI2
asS'kooky'
p983
(lp984
I2
aI2
asS"bennett's"
p985
(lp986
I2
aI2
asS'delivers'
p987
(lp988
I28
aI28
asS'count'
p989
(lp990
I7
aI7
asS'places'
p991
(lp992
I10
aI9
asS'smooth'
p993
(lp994
I5
aI5
asS'problem'
p995
(lp996
I5
aI5
asS'diggs'
p997
(lp998
I2
aI2
asS'seus'
p999
(lp1000
I2
aI2
asS'monday'
p1001
(lp1002
I2
aI2
asS'chance'
p1003
(lp1004
I6
aI6
asS'wrenching'
p1005
(lp1006
I2
aI2
asS'punching'
p1007
(lp1008
I3
aI3
asS"cox's"
p1009
(lp1010
I2
aI2
asS'magnetic'
p1011
(lp1012
I3
aI3
asS'maid'
p1013
(lp1014
I2
aI2
asS'controversial'
p1015
(lp1016
I3
aI3
asS'integrity'
p1017
(lp1018
I7
aI7
asS'relationships'
p1019
(lp1020
I12
aI11
asS'same sex'
p1021
(lp1022
I2
aI2
asS'worth'
p1023
(lp1024
I38
aI38
asS'triumph'
p1025
(lp1026
I8
aI8
asS'machines'
p1027
(lp1028
I2
aI2
asS'near'
p1029
(lp1030
I1
aI1
asS'establishes'
p1031
(lp1032
I3
aI3
asS'admirers'
p1033
(lp1034
I2
aI2
asS'study'
p1035
(lp1036
I24
aI24
asS'approaches'
p1037
(lp1038
I3
aI3
asS"majidi's"
p1039
(lp1040
I2
aI2
asS'spooky'
p1041
(lp1042
I8
aI8
asS'highly'
p1043
(lp1044
I16
aI16
asS'sparkling'
p1045
(lp1046
I5
aI5
asS'experimentation'
p1047
(lp1048
I2
aI2
asS'plot'
p1049
(lp1050
I34
aI34
asS'palestinian'
p1051
(lp1052
I2
aI2
asS"world's"
p1053
(lp1054
I8
aI8
asS'aware'
p1055
(lp1056
I3
aI3
asS'escapist'
p1057
(lp1058
I5
aI5
asS'sobering'
p1059
(lp1060
I5
aI5
asS'striving'
p1061
(lp1062
I2
aI2
asS'permits'
p1063
(lp1064
I2
aI2
asS'1999'
p1065
(lp1066
I2
aI2
asS'work'
p1067
(lp1068
I83
aI81
asS'refusing'
p1069
(lp1070
I2
aI2
asS'theories'
p1071
(lp1072
I2
aI2
asS'worse'
p1073
(lp1074
I3
aI3
asS'recovery'
p1075
(lp1076
I2
aI2
asS'farce'
p1077
(lp1078
I1
aI1
asS'morbid'
p1079
(lp1080
I3
aI3
asS'operatic'
p1081
(lp1082
I2
aI2
asS'gamble'
p1083
(lp1084
I2
aI2
asS'less'
p1085
(lp1086
I27
aI24
asS'lay'
p1087
(lp1088
I3
aI3
asS'muckraking'
p1089
(lp1090
I2
aI2
asS'fan'
p1091
(lp1092
I10
aI10
asS'greed'
p1093
(lp1094
I2
aI2
asS'jabs'
p1095
(lp1096
I2
aI2
asS'satisfies'
p1097
(lp1098
I2
aI2
asS'adolescence'
p1099
(lp1100
I2
aI2
asS'somewhere'
p1101
(lp1102
I2
aI2
asS'eventually'
p1103
(lp1104
I3
aI3
asS'collide'
p1105
(lp1106
I2
aI2
asS'rocks'
p1107
(lp1108
I2
aI2
asS'recognizable'
p1109
(lp1110
I2
aI2
asS"smith's"
p1111
(lp1112
I2
aI2
asS'daniel'
p1113
(lp1114
I4
aI4
asS'forth'
p1115
(lp1116
I6
aI6
asS'creates'
p1117
(lp1118
I10
aI10
asS'flawless'
p1119
(lp1120
I2
aI2
asS'light hearted'
p1121
(lp1122
I2
aI2
asS'another'
p1123
(lp1124
I27
aI27
asS'john'
p1125
(lp1126
I11
aI11
asS'happily'
p1127
(lp1128
I5
aI5
asS'wasted'
p1129
(lp1130
I1
aI1
asS'unexplainable'
p1131
(lp1132
I2
aI2
asS'manner'
p1133
(lp1134
I11
aI11
asS'refreshingly'
p1135
(lp1136
I11
aI11
asS'forced'
p1137
(lp1138
I4
aI4
asS'subjects'
p1139
(lp1140
I7
aI7
asS'newcomers'
p1141
(lp1142
I2
aI2
asS'subtly'
p1143
(lp1144
I5
aI5
asS'confront'
p1145
(lp1146
I2
aI2
asS'subtle'
p1147
(lp1148
I15
aI15
asS"children's"
p1149
(lp1150
I2
aI2
asS'secretary'
p1151
(lp1152
I5
aI5
asS'fullness'
p1153
(lp1154
I2
aI2
asS'draws'
p1155
(lp1156
I5
aI5
asS'bien'
p1157
(lp1158
I2
aI2
asS'bracing'
p1159
(lp1160
I2
aI2
asS'multi character'
p1161
(lp1162
I2
aI2
asS'terms'
p1163
(lp1164
I11
aI11
asS'essentially'
p1165
(lp1166
I3
aI3
asS'tone'
p1167
(lp1168
I20
aI20
asS'roller coaster'
p1169
(lp1170
I2
aI2
asS'layers'
p1171
(lp1172
I3
aI3
asS'warmth'
p1173
(lp1174
I12
aI12
asS'innocent'
p1175
(lp1176
I5
aI5
asS'ichi'
p1177
(lp1178
I2
aI2
asS'information'
p1179
(lp1180
I2
aI2
asS'applies'
p1181
(lp1182
I2
aI2
asS'indictment'
p1183
(lp1184
I3
aI3
asS'confection'
p1185
(lp1186
I2
aI2
asS'fuss'
p1187
(lp1188
I2
aI2
asS'redneck'
p1189
(lp1190
I2
aI2
asS'musical'
p1191
(lp1192
I13
aI13
asS'athletic'
p1193
(lp1194
I2
aI2
asS'thanks'
p1195
(lp1196
I16
aI16
asS'adding'
p1197
(lp1198
I3
aI3
asS'retread'
p1199
(lp1200
I2
aI2
asS'invaluable'
p1201
(lp1202
I3
aI3
asS'portuguese'
p1203
(lp1204
I2
aI2
asS'sends'
p1205
(lp1206
I2
aI2
asS'adorably'
p1207
(lp1208
I2
aI2
asS'beating'
p1209
(lp1210
I2
aI2
asS'peek'
p1211
(lp1212
I6
aI5
asS'anime'
p1213
(lp1214
I5
aI5
asS'float'
p1215
(lp1216
I2
aI2
asS'balances'
p1217
(lp1218
I3
aI3
asS'balanced'
p1219
(lp1220
I5
aI5
asS'way'
p1221
(lp1222
I100
aI98
asS'war'
p1223
(lp1224
I24
aI23
asS'dead'
p1225
(lp1226
I6
aI5
asS'true'
p1227
(lp1228
I27
aI27
asS'wintry'
p1229
(lp1230
I2
aI2
asS'physical'
p1231
(lp1232
I5
aI5
asS'test'
p1233
(lp1234
I2
aI2
asS'welcome'
p1235
(lp1236
I11
aI11
asS'improvisation'
p1237
(lp1238
I2
aI2
asS'concept'
p1239
(lp1240
I6
aI6
asS'battle'
p1241
(lp1242
I8
aI8
asS'idealism'
p1243
(lp1244
I3
aI3
asS'compensate'
p1245
(lp1246
I2
aI2
asS'seemingly'
p1247
(lp1248
I1
aI1
asS'turns'
p1249
(lp1250
I12
aI12
asS'gut'
p1251
(lp1252
I2
aI2
asS'guy'
p1253
(lp1254
I4
aI4
asS'woven'
p1255
(lp1256
I3
aI3
asS'repetitive'
p1257
(lp1258
I2
aI2
asS'cost'
p1259
(lp1260
I2
aI2
asS'pleasingly'
p1261
(lp1262
I2
aI2
asS'shared'
p1263
(lp1264
I3
aI3
asS'collateral'
p1265
(lp1266
I2
aI2
asS'teacher'
p1267
(lp1268
I5
aI5
asS'igby'
p1269
(lp1270
I3
aI3
asS'extra'
p1271
(lp1272
I3
aI3
asS'wonderfully'
p1273
(lp1274
I10
aI10
asS'eccentrics'
p1275
(lp1276
I2
aI2
asS'car'
p1277
(lp1278
I2
aI2
asS'cat'
p1279
(lp1280
I4
aI4
asS'meow'
p1281
(lp1282
I2
aI2
asS'stimulating'
p1283
(lp1284
I2
aI2
asS'cad'
p1285
(lp1286
I2
aI2
asS'heart'
p1287
(lp1288
I43
aI43
asS"didn't"
p1289
(lp1290
I5
aI5
asS'occur'
p1291
(lp1292
I2
aI2
asS'discussion'
p1293
(lp1294
I3
aI3
asS'exceptional'
p1295
(lp1296
I6
aI6
asS'cliche'
p1297
(lp1298
I2
aI2
asS'spielberg'
p1299
(lp1300
I7
aI7
asS'sacrifice'
p1301
(lp1302
I5
aI5
asS'dahmer'
p1303
(lp1304
I1
aI1
asS'playful'
p1305
(lp1306
I7
aI7
asS'cold'
p1307
(lp1308
I9
aI9
asS'still'
p1309
(lp1310
I72
aI71
asS'disparate'
p1311
(lp1312
I2
aI2
asS'adrenaline'
p1313
(lp1314
I2
aI2
asS'half'
p1315
(lp1316
I10
aI10
asS'nor'
p1317
(lp1318
I6
aI6
asS'challenges'
p1319
(lp1320
I2
aI2
asS'year'
p1321
(lp1322
I32
aI32
asS'digressions'
p1323
(lp1324
I2
aI2
asS'irony'
p1325
(lp1326
I4
aI4
asS'thirst'
p1327
(lp1328
I3
aI3
asS'shows'
p1329
(lp1330
I15
aI15
asS'screenwriters'
p1331
(lp1332
I1
aI1
asS'rebel'
p1333
(lp1334
I2
aI2
asS'contemplation'
p1335
(lp1336
I2
aI2
asS'tries'
p1337
(lp1338
I5
aI5
asS'honest'
p1339
(lp1340
I16
aI16
asS"lookin'"
p1341
(lp1342
I2
aI2
asS'invitation'
p1343
(lp1344
I2
aI2
asS'size'
p1345
(lp1346
I3
aI3
asS'first class'
p1347
(lp1348
I3
aI3
asS'appreciates'
p1349
(lp1350
I2
aI2
asS'television'
p1351
(lp1352
I2
aI2
asS'optimism'
p1353
(lp1354
I3
aI3
asS'heavy handed'
p1355
(lp1356
I2
aI2
asS'angel'
p1357
(lp1358
I3
aI3
asS"assayas'"
p1359
(lp1360
I2
aI2
asS'nuanced'
p1361
(lp1362
I7
aI7
asS'veteran'
p1363
(lp1364
I2
aI2
asS'terrific'
p1365
(lp1366
I25
aI25
asS'nuances'
p1367
(lp1368
I5
aI5
asS'price'
p1369
(lp1370
I2
aI2
asS'neatly'
p1371
(lp1372
I2
aI2
asS'america'
p1373
(lp1374
I7
aI7
asS']'
p1375
(lp1376
I3
aI3
asS'feminine'
p1377
(lp1378
I2
aI2
asS'steady'
p1379
(lp1380
I3
aI3
asS'typically'
p1381
(lp1382
I2
aI2
asS'motown'
p1383
(lp1384
I3
aI3
asS'title'
p1385
(lp1386
I11
aI11
asS'jolt'
p1387
(lp1388
I3
aI3
asS"scorsese's"
p1389
(lp1390
I3
aI3
asS'burst'
p1391
(lp1392
I2
aI2
asS'physically'
p1393
(lp1394
I2
aI2
asS'anchored'
p1395
(lp1396
I4
aI4
asS'concern'
p1397
(lp1398
I6
aI6
asS'movie making'
p1399
(lp1400
I2
aI2
asS'fascinates'
p1401
(lp1402
I3
aI3
asS'comes'
p1403
(lp1404
I26
aI26
asS'sulky'
p1405
(lp1406
I2
aI2
asS'save'
p1407
(lp1408
I2
aI2
asS'oliver'
p1409
(lp1410
I4
aI4
asS'wounds'
p1411
(lp1412
I2
aI2
asS'figured'
p1413
(lp1414
I3
aI3
asS'countless'
p1415
(lp1416
I2
aI2
asS'trick'
p1417
(lp1418
I6
aI6
asS'joke'
p1419
(lp1420
I2
aI1
asS'thrillers'
p1421
(lp1422
I5
aI5
asS'buen'
p1423
(lp1424
I2
aI2
asS'embrace'
p1425
(lp1426
I3
aI3
asS'centuries'
p1427
(lp1428
I2
aI2
asS'siegel'
p1429
(lp1430
I2
aI2
asS'enchanting'
p1431
(lp1432
I2
aI2
asS'theater'
p1433
(lp1434
I12
aI12
asS'breezy'
p1435
(lp1436
I5
aI5
asS'coming of age'
p1437
(lp1438
I21
aI21
asS'touch'
p1439
(lp1440
I9
aI9
asS'watchable'
p1441
(lp1442
I8
aI8
asS'role'
p1443
(lp1444
I14
aI14
asS'read'
p1445
(lp1446
I14
aI14
asS'gonna'
p1447
(lp1448
I2
aI2
asS'execution'
p1449
(lp1450
I3
aI3
asS'lady'
p1451
(lp1452
I5
aI5
asS'passions'
p1453
(lp1454
I4
aI4
asS'barris'
p1455
(lp1456
I2
aI2
asS'equivalent'
p1457
(lp1458
I3
aI3
asS'innocence'
p1459
(lp1460
I6
aI6
asS'fondness'
p1461
(lp1462
I2
aI2
asS'central'
p1463
(lp1464
I1
aI1
asS'paints'
p1465
(lp1466
I2
aI2
asS'boldly'
p1467
(lp1468
I3
aI3
asS'greatly'
p1469
(lp1470
I3
aI3
asS'daringly'
p1471
(lp1472
I2
aI2
asS'prepare'
p1473
(lp1474
I2
aI2
asS'stark'
p1475
(lp1476
I4
aI4
asS'low'
p1477
(lp1478
I3
aI3
asS'above average'
p1479
(lp1480
I3
aI3
asS'manipulative'
p1481
(lp1482
I2
aI2
asS'trying'
p1483
(lp1484
I13
aI13
asS'embedded'
p1485
(lp1486
I2
aI2
asS'comics'
p1487
(lp1488
I3
aI3
asS'sadness'
p1489
(lp1490
I4
aI4
asS'native'
p1491
(lp1492
I2
aI2
asS'moved'
p1493
(lp1494
I5
aI5
asS'green'
p1495
(lp1496
I3
aI3
asS'cinematography'
p1497
(lp1498
I1
aI1
asS'perils'
p1499
(lp1500
I2
aI2
asS'ramsay'
p1501
(lp1502
I5
aI5
asS'embracing'
p1503
(lp1504
I3
aI3
asS'thoughtful'
p1505
(lp1506
I17
aI17
asS'foster'
p1507
(lp1508
I3
aI3
asS"morrison's"
p1509
(lp1510
I2
aI2
asS'austerity'
p1511
(lp1512
I2
aI2
asS'themes'
p1513
(lp1514
I11
aI11
asS'manages'
p1515
(lp1516
I25
aI25
asS'conscience'
p1517
(lp1518
I2
aI2
asS'bio pic'
p1519
(lp1520
I3
aI3
asS'emotions'
p1521
(lp1522
I18
aI18
asS'answers'
p1523
(lp1524
I9
aI9
asS'uniquely'
p1525
(lp1526
I2
aI2
asS'family'
p1527
(lp1528
I44
aI43
asS'conventional'
p1529
(lp1530
I3
aI3
asS'flaws'
p1531
(lp1532
I12
aI12
asS'contains'
p1533
(lp1534
I1
aI1
asS'heroic'
p1535
(lp1536
I3
aI3
asS'mysterious'
p1537
(lp1538
I6
aI6
asS'stylistic'
p1539
(lp1540
I5
aI5
asS'excuse'
p1541
(lp1542
I1
aI1
asS'impulse'
p1543
(lp1544
I3
aI3
asS'history'
p1545
(lp1546
I34
aI34
asS'lacks'
p1547
(lp1548
I12
aI12
asS'firmly'
p1549
(lp1550
I2
aI2
asS'triumphs'
p1551
(lp1552
I3
aI3
asS'gasp'
p1553
(lp1554
I2
aI2
asS'derives'
p1555
(lp1556
I2
aI2
asS'contrived'
p1557
(lp1558
I4
aI4
asS'self destructive'
p1559
(lp1560
I2
aI2
asS'dream'
p1561
(lp1562
I7
aI7
asS'crafty'
p1563
(lp1564
I2
aI2
asS'help'
p1565
(lp1566
I19
aI19
asS'perceptive'
p1567
(lp1568
I4
aI4
asS'actually'
p1569
(lp1570
I13
aI13
asS'evening'
p1571
(lp1572
I2
aI2
asS'floating'
p1573
(lp1574
I2
aI2
asS'sweeping'
p1575
(lp1576
I5
aI5
asS'desperately'
p1577
(lp1578
I1
aI1
asS"isn't"
p1579
(lp1580
I28
aI28
asS'heavy'
p1581
(lp1582
I4
aI4
asS'wacky'
p1583
(lp1584
I5
aI5
asS'beyond'
p1585
(lp1586
I10
aI10
asS'event'
p1587
(lp1588
I6
aI6
asS'raymond'
p1589
(lp1590
I2
aI2
asS'douglas'
p1591
(lp1592
I4
aI4
asS'sustain'
p1593
(lp1594
I6
aI6
asS'issue'
p1595
(lp1596
I2
aI2
asS'earns'
p1597
(lp1598
I4
aI4
asS'ponderous'
p1599
(lp1600
I2
aI2
asS'reason'
p1601
(lp1602
I9
aI9
asS'revolutionary'
p1603
(lp1604
I2
aI2
asS'american'
p1605
(lp1606
I39
aI38
asS'kung'
p1607
(lp1608
I1
aI1
asS'effortless'
p1609
(lp1610
I2
aI2
asS'transcendent'
p1611
(lp1612
I2
aI2
asS'trapped'
p1613
(lp1614
I2
aI2
asS'off beat'
p1615
(lp1616
I2
aI2
asS'bride'
p1617
(lp1618
I5
aI5
asS'showcases'
p1619
(lp1620
I5
aI5
asS'fantasy adventure'
p1621
(lp1622
I2
aI2
asS'chronicle'
p1623
(lp1624
I3
aI3
asS'sturdy'
p1625
(lp1626
I2
aI2
asS'performances'
p1627
(lp1628
I69
aI68
asS'intelligently'
p1629
(lp1630
I2
aI2
asS'languid'
p1631
(lp1632
I2
aI2
asS'dominant'
p1633
(lp1634
I2
aI2
asS'landscapes'
p1635
(lp1636
I2
aI2
asS"tolkien's"
p1637
(lp1638
I2
aI2
asS'feels'
p1639
(lp1640
I19
aI19
asS'culture'
p1641
(lp1642
I22
aI22
asS'years '
p1643
(lp1644
I2
aI2
asS'missing'
p1645
(lp1646
I4
aI4
asS"intacto's"
p1647
(lp1648
I2
aI2
asS'ratliff'
p1649
(lp1650
I2
aI2
asS'collaborators'
p1651
(lp1652
I2
aI2
asS"wouldn't"
p1653
(lp1654
I4
aI4
asS'experimental'
p1655
(lp1656
I3
aI3
asS'manners'
p1657
(lp1658
I4
aI4
asS'delights'
p1659
(lp1660
I3
aI3
asS'dialogue'
p1661
(lp1662
I20
aI20
asS'lived'
p1663
(lp1664
I7
aI7
asS'crack'
p1665
(lp1666
I2
aI2
asS'else'
p1667
(lp1668
I9
aI9
asS'lives'
p1669
(lp1670
I18
aI18
asS'imax'
p1671
(lp1672
I10
aI10
asS'accomplishes'
p1673
(lp1674
I3
aI3
asS'intriguing'
p1675
(lp1676
I22
aI22
asS'look'
p1677
(lp1678
I76
aI75
asS'canadian'
p1679
(lp1680
I2
aI2
asS'smart'
p1681
(lp1682
I31
aI31
asS'animated'
p1683
(lp1684
I17
aI17
asS'uncompromising'
p1685
(lp1686
I6
aI6
asS'communal'
p1687
(lp1688
I3
aI3
asS'self indulgent'
p1689
(lp1690
I2
aI2
asS'vulnerable'
p1691
(lp1692
I2
aI2
asS'grand'
p1693
(lp1694
I7
aI7
asS'composition'
p1695
(lp1696
I2
aI2
asS'bon'
p1697
(lp1698
I2
aI2
asS'uses'
p1699
(lp1700
I18
aI18
asS'haunting'
p1701
(lp1702
I11
aI11
asS'older'
p1703
(lp1704
I1
aI1
asS'obviously'
p1705
(lp1706
I1
aI1
asS'raimi'
p1707
(lp1708
I2
aI2
asS'chord'
p1709
(lp1710
I4
aI4
asS'exploits'
p1711
(lp1712
I2
aI2
asS'guaranteed'
p1713
(lp1714
I4
aI4
asS'transformation'
p1715
(lp1716
I3
aI3
asS'stein'
p1717
(lp1718
I2
aI2
asS'popular'
p1719
(lp1720
I5
aI5
asS'urgent'
p1721
(lp1722
I2
aI2
asS'lips'
p1723
(lp1724
I5
aI5
asS'obnoxious'
p1725
(lp1726
I1
aI1
asS'larger than life'
p1727
(lp1728
I2
aI2
asS'nerves'
p1729
(lp1730
I2
aI2
asS'taboo'
p1731
(lp1732
I2
aI2
asS'within'
p1733
(lp1734
I10
aI10
asS'nonsense'
p1735
(lp1736
I2
aI2
asS'filme'
p1737
(lp1738
I6
aI6
asS'computer'
p1739
(lp1740
I1
aI1
asS'sizzle'
p1741
(lp1742
I4
aI3
asS'specialty'
p1743
(lp1744
I2
aI2
asS'tragically'
p1745
(lp1746
I2
aI2
asS'russian'
p1747
(lp1748
I6
aI6
asS'amateurish'
p1749
(lp1750
I1
aI1
asS'dull'
p1751
(lp1752
I3
aI3
asS'evocative'
p1753
(lp1754
I7
aI7
asS'amounts'
p1755
(lp1756
I2
aI2
asS'grind'
p1757
(lp1758
I3
aI3
asS'department'
p1759
(lp1760
I2
aI2
asS'arithmetic'
p1761
(lp1762
I2
aI2
asS'drag'
p1763
(lp1764
I2
aI2
asS'mamet'
p1765
(lp1766
I4
aI4
asS"evans'"
p1767
(lp1768
I2
aI2
asS'friendly'
p1769
(lp1770
I3
aI3
asS'duvall'
p1771
(lp1772
I2
aI2
asS'snide'
p1773
(lp1774
I2
aI2
asS'sublimely'
p1775
(lp1776
I2
aI2
asS'compassionate'
p1777
(lp1778
I2
aI2
asS'tosca'
p1779
(lp1780
I4
aI3
asS'plays'
p1781
(lp1782
I8
aI8
asS'evokes'
p1783
(lp1784
I5
aI5
asS'melancholy'
p1785
(lp1786
I5
aI5
asS'meandering'
p1787
(lp1788
I1
aI1
asS'upsetting'
p1789
(lp1790
I2
aI2
asS'believed'
p1791
(lp1792
I2
aI2
asS'haunts'
p1793
(lp1794
I3
aI3
asS'examining'
p1795
(lp1796
I2
aI2
asS'becomes'
p1797
(lp1798
I9
aI9
asS'charming'
p1799
(lp1800
I32
aI32
asS'quills'
p1801
(lp1802
I2
aI2
asS'ride'
p1803
(lp1804
I22
aI22
asS'drops'
p1805
(lp1806
I2
aI2
asS'halloween'
p1807
(lp1808
I1
aI1
asS"polanski's"
p1809
(lp1810
I5
aI5
asS'wonderful'
p1811
(lp1812
I17
aI17
asS'neurotic'
p1813
(lp1814
I3
aI3
asS'fare'
p1815
(lp1816
I10
aI9
asS'brittle'
p1817
(lp1818
I2
aI2
asS'subversive'
p1819
(lp1820
I7
aI7
asS'masses'
p1821
(lp1822
I2
aI2
asS'surrounds'
p1823
(lp1824
I3
aI3
asS'globe'
p1825
(lp1826
I3
aI3
asS'morton'
p1827
(lp1828
I4
aI4
asS'special'
p1829
(lp1830
I17
aI17
asS'well constructed'
p1831
(lp1832
I2
aI2
asS'wondrous'
p1833
(lp1834
I2
aI2
asS'tully'
p1835
(lp1836
I2
aI2
asS'darkly'
p1837
(lp1838
I4
aI4
asS'completely'
p1839
(lp1840
I10
aI10
asS"cho's"
p1841
(lp1842
I3
aI3
asS'designed'
p1843
(lp1844
I1
aI1
asS'powerful'
p1845
(lp1846
I26
aI25
asS'introspective'
p1847
(lp1848
I2
aI2
asS'bears'
p1849
(lp1850
I1
aI1
asS'wrapped'
p1851
(lp1852
I1
aI1
asS'ambiguity'
p1853
(lp1854
I6
aI6
asS'perfectly'
p1855
(lp1856
I14
aI14
asS'exactly'
p1857
(lp1858
I8
aI8
asS'distinguished'
p1859
(lp1860
I2
aI2
asS'portrait'
p1861
(lp1862
I24
aI24
asS'border'
p1863
(lp1864
I3
aI3
asS'bourne'
p1865
(lp1866
I8
aI7
asS'intentions'
p1867
(lp1868
I2
aI2
asS'old time'
p1869
(lp1870
I2
aI2
asS'demise'
p1871
(lp1872
I2
aI2
asS'brought'
p1873
(lp1874
I2
aI2
asS'undeniably'
p1875
(lp1876
I8
aI8
asS'anti semitism'
p1877
(lp1878
I2
aI2
asS'partners'
p1879
(lp1880
I2
aI2
asS'('
p1881
(lp1882
I63
aI57
asS'hopeful'
p1883
(lp1884
I7
aI7
asS'joins'
p1885
(lp1886
I2
aI2
asS'years'
p1887
(lp1888
I38
aI37
asS'shy'
p1889
(lp1890
I2
aI2
asS'cuts'
p1891
(lp1892
I5
aI5
asS'humane'
p1893
(lp1894
I2
aI2
asS'outrageousness'
p1895
(lp1896
I2
aI2
asS'motivations'
p1897
(lp1898
I2
aI2
asS'horrible'
p1899
(lp1900
I1
aI1
asS'neither'
p1901
(lp1902
I5
aI5
asS'experiencia'
p1903
(lp1904
I2
aI2
asS'hits'
p1905
(lp1906
I10
aI10
asS'limits'
p1907
(lp1908
I3
aI3
asS'top notch'
p1909
(lp1910
I3
aI3
asS'cynicism'
p1911
(lp1912
I3
aI3
asS'poem'
p1913
(lp1914
I6
aI6
asS'treat'
p1915
(lp1916
I13
aI13
asS'controlled'
p1917
(lp1918
I2
aI2
asS'examines'
p1919
(lp1920
I3
aI3
asS'sensitive'
p1921
(lp1922
I14
aI14
asS'generic'
p1923
(lp1924
I1
aI1
asS'dickens'
p1925
(lp1926
I3
aI3
asS'effect'
p1927
(lp1928
I3
aI3
asS'impeccable'
p1929
(lp1930
I3
aI3
asS"'my"
p1931
(lp1932
I2
aI2
asS'trials'
p1933
(lp1934
I2
aI2
asS'enormously'
p1935
(lp1936
I3
aI3
asS'discord'
p1937
(lp1938
I2
aI2
asS'accurate'
p1939
(lp1940
I5
aI5
asS'clashing'
p1941
(lp1942
I4
aI3
asS'ample'
p1943
(lp1944
I2
aI2
asS'cantet'
p1945
(lp1946
I2
aI2
asS'formulaic'
p1947
(lp1948
I3
aI3
asS'loss'
p1949
(lp1950
I10
aI10
asS'refugees'
p1951
(lp1952
I3
aI3
asS'heartache'
p1953
(lp1954
I3
aI3
asS'steaming'
p1955
(lp1956
I2
aI2
asS'injects'
p1957
(lp1958
I2
aI2
asS'reaching'
p1959
(lp1960
I2
aI2
asS'poignant'
p1961
(lp1962
I12
aI12
asS'instinct'
p1963
(lp1964
I2
aI2
asS'sinister'
p1965
(lp1966
I4
aI3
asS'evocation'
p1967
(lp1968
I2
aI2
asS'washington'
p1969
(lp1970
I4
aI4
asS'adrenalin'
p1971
(lp1972
I2
aI2
asS'cricket'
p1973
(lp1974
I2
aI2
asS'north'
p1975
(lp1976
I2
aI2
asS'piece'
p1977
(lp1978
I33
aI32
asS'beats'
p1979
(lp1980
I2
aI2
asS'unimpeachable'
p1981
(lp1982
I2
aI2
asS'spellbinding'
p1983
(lp1984
I3
aI3
asS'gross out'
p1985
(lp1986
I3
aI3
asS'astounding'
p1987
(lp1988
I3
aI3
asS'rural'
p1989
(lp1990
I3
aI3
asS"greene's"
p1991
(lp1992
I3
aI3
asS'asian'
p1993
(lp1994
I3
aI3
asS'majidi'
p1995
(lp1996
I2
aI2
asS'intermingling'
p1997
(lp1998
I2
aI2
asS'brimming'
p1999
(lp2000
I3
aI3
asS'force'
p2001
(lp2002
I13
aI13
asS'complexities'
p2003
(lp2004
I2
aI2
asS'sobre'
p2005
(lp2006
I3
aI3
asS'ever'
p2007
(lp2008
I53
aI53
asS'never'
p2009
(lp2010
I71
aI70
asS'disposable'
p2011
(lp2012
I1
aI1
asS'piercing'
p2013
(lp2014
I2
aI2
asS'suitable'
p2015
(lp2016
I4
aI4
asS'fantastic'
p2017
(lp2018
I7
aI7
asS'moral'
p2019
(lp2020
I12
aI12
asS'calm'
p2021
(lp2022
I2
aI2
asS'type'
p2023
(lp2024
I2
aI2
asS'wars'
p2025
(lp2026
I6
aI6
asS'warm'
p2027
(lp2028
I18
aI18
asS'adult'
p2029
(lp2030
I7
aI7
asS'directorial'
p2031
(lp2032
I2
aI2
asS'somber'
p2033
(lp2034
I5
aI5
asS'exploitative'
p2035
(lp2036
I1
aI1
asS'give'
p2037
(lp2038
I37
aI36
asS'laughs'
p2039
(lp2040
I18
aI18
asS'unforgettable'
p2041
(lp2042
I2
aI2
asS'faults'
p2043
(lp2044
I4
aI4
asS'amazing'
p2045
(lp2046
I9
aI9
asS'attempt'
p2047
(lp2048
I7
aI7
asS'maintain'
p2049
(lp2050
I4
aI4
asS'unfolds'
p2051
(lp2052
I8
aI8
asS'personal'
p2053
(lp2054
I19
aI19
asS'better'
p2055
(lp2056
I36
aI35
asS'schmidt'
p2057
(lp2058
I5
aI4
asS'pleasurable'
p2059
(lp2060
I3
aI3
asS'school'
p2061
(lp2062
I2
aI2
asS'immediacy'
p2063
(lp2064
I3
aI3
asS'sleepless'
p2065
(lp2066
I2
aI2
asS'droll'
p2067
(lp2068
I2
aI2
asS'meal'
p2069
(lp2070
I2
aI2
asS'doug'
p2071
(lp2072
I3
aI3
asS'comedies'
p2073
(lp2074
I15
aI15
asS'fiery'
p2075
(lp2076
I2
aI2
asS'struggle'
p2077
(lp2078
I7
aI7
asS'starts'
p2079
(lp2080
I5
aI5
asS'features'
p2081
(lp2082
I6
aI6
asS'hook'
p2083
(lp2084
I1
aI1
asS'immensely'
p2085
(lp2086
I5
aI5
asS'masterfully'
p2087
(lp2088
I3
aI3
asS'escort'
p2089
(lp2090
I2
aI2
asS'fairytale'
p2091
(lp2092
I2
aI2
asS'matter'
p2093
(lp2094
I13
aI13
asS'silly'
p2095
(lp2096
I10
aI10
asS'modern'
p2097
(lp2098
I22
aI22
asS'mind'
p2099
(lp2100
I20
aI20
asS'canny'
p2101
(lp2102
I3
aI3
asS'seem'
p2103
(lp2104
I19
aI19
asS'dared'
p2105
(lp2106
I2
aI2
asS'psychologically'
p2107
(lp2108
I5
aI5
asS'rappers'
p2109
(lp2110
I2
aI2
asS'dog'
p2111
(lp2112
I3
aI3
asS'dover'
p2113
(lp2114
I2
aI2
asS'deftly'
p2115
(lp2116
I10
aI10
asS'attempts'
p2117
(lp2118
I2
aI2
asS'colorful'
p2119
(lp2120
I9
aI9
asS'coast'
p2121
(lp2122
I2
aI2
asS'bad'
p2123
(lp2124
I12
aI12
asS'fascinating'
p2125
(lp2126
I30
aI30
asS'artificial'
p2127
(lp2128
I2
aI2
asS"there's"
p2129
(lp2130
I39
aI38
asS'meditative'
p2131
(lp2132
I2
aI2
asS'timeframe'
p2133
(lp2134
I2
aI2
asS'warrior'
p2135
(lp2136
I2
aI2
asS'lazy'
p2137
(lp2138
I3
aI3
asS'wears'
p2139
(lp2140
I2
aI2
asS'full bodied'
p2141
(lp2142
I2
aI2
asS'harvard'
p2143
(lp2144
I1
aI1
asS'picking'
p2145
(lp2146
I2
aI2
asS'contribution'
p2147
(lp2148
I2
aI2
asS'offerings'
p2149
(lp2150
I3
aI3
asS'inquisitive'
p2151
(lp2152
I2
aI2
asS'san'
p2153
(lp2154
I2
aI2
asS'interest'
p2155
(lp2156
I8
aI8
asS'shattering'
p2157
(lp2158
I3
aI3
asS'gracias'
p2159
(lp2160
I2
aI2
asS'sly'
p2161
(lp2162
I5
aI5
asS'ugly'
p2163
(lp2164
I3
aI3
asS'chilling'
p2165
(lp2166
I8
aI8
asS'self assured'
p2167
(lp2168
I2
aI2
asS"opera's"
p2169
(lp2170
I2
aI2
asS'grown'
p2171
(lp2172
I2
aI2
asS'potentially'
p2173
(lp2174
I3
aI3
asS'delight'
p2175
(lp2176
I8
aI8
asS"he'll"
p2177
(lp2178
I3
aI3
asS'anarchists'
p2179
(lp2180
I2
aI2
asS'settled'
p2181
(lp2182
I2
aI2
asS'left'
p2183
(lp2184
I10
aI10
asS'human'
p2185
(lp2186
I51
aI51
asS'facts'
p2187
(lp2188
I2
aI2
asS'yet'
p2189
(lp2190
I41
aI41
asS'auspicious'
p2191
(lp2192
I2
aI2
asS'notorious'
p2193
(lp2194
I3
aI3
asS'clich\xe9'
p2195
(lp2196
I1
aI1
asS'dean'
p2197
(lp2198
I2
aI2
asS'bold'
p2199
(lp2200
I6
aI6
asS"famuyiwa's"
p2201
(lp2202
I2
aI2
asS'protagonist'
p2203
(lp2204
I2
aI2
asS'low key'
p2205
(lp2206
I8
aI8
asS'overkill'
p2207
(lp2208
I3
aI3
asS'jealousy'
p2209
(lp2210
I8
aI8
asS'lurid'
p2211
(lp2212
I2
aI2
asS'disarmingly'
p2213
(lp2214
I2
aI2
asS'cuban'
p2215
(lp2216
I2
aI2
asS'ford'
p2217
(lp2218
I1
aI1
asS'failure'
p2219
(lp2220
I2
aI1
asS'attached'
p2221
(lp2222
I2
aI2
asS'propaganda'
p2223
(lp2224
I1
aI1
asS'classic'
p2225
(lp2226
I9
aI9
asS'gracefully'
p2227
(lp2228
I2
aI2
asS'ship'
p2229
(lp2230
I1
aI1
asS'generally'
p2231
(lp2232
I10
aI10
asS'holly'
p2233
(lp2234
I2
aI2
asS'gradually'
p2235
(lp2236
I5
aI5
asS'journey'
p2237
(lp2238
I19
aI19
asS'shatters'
p2239
(lp2240
I2
aI2
asS'jones'
p2241
(lp2242
I7
aI7
asS'managed'
p2243
(lp2244
I5
aI5
asS'themed'
p2245
(lp2246
I2
aI2
asS'skip'
p2247
(lp2248
I1
aI1
asS'souls'
p2249
(lp2250
I6
aI6
asS'mild'
p2251
(lp2252
I2
aI2
asS'skin'
p2253
(lp2254
I13
aI13
asS'father'
p2255
(lp2256
I8
aI8
asS'little known'
p2257
(lp2258
I2
aI2
asS'unpleasant'
p2259
(lp2260
I3
aI3
asS'economical'
p2261
(lp2262
I2
aI2
asS'sappy'
p2263
(lp2264
I1
aI1
asS'die'
p2265
(lp2266
I1
aI1
asS'item'
p2267
(lp2268
I2
aI2
asS'unexpected'
p2269
(lp2270
I13
aI13
asS'dealing'
p2271
(lp2272
I2
aI2
asS'inconsequential'
p2273
(lp2274
I1
aI1
asS'[director'
p2275
(lp2276
I2
aI2
asS'janklowicz mann'
p2277
(lp2278
I2
aI2
asS'filled'
p2279
(lp2280
I8
aI8
asS'henry'
p2281
(lp2282
I4
aI4
asS'french'
p2283
(lp2284
I22
aI22
asS'maguire'
p2285
(lp2286
I3
aI3
asS'priceless'
p2287
(lp2288
I3
aI3
asS'breathtaking'
p2289
(lp2290
I9
aI9
asS'sympathetic'
p2291
(lp2292
I7
aI7
asS'joyous'
p2293
(lp2294
I3
aI3
asS'france'
p2295
(lp2296
I3
aI3
asS'downtown'
p2297
(lp2298
I2
aI2
asS'soul'
p2299
(lp2300
I10
aI10
asS'sour'
p2301
(lp2302
I1
aI1
asS'drags'
p2303
(lp2304
I2
aI2
asS'9 11'
p2305
(lp2306
I2
aI2
asS'sunday'
p2307
(lp2308
I3
aI3
asS'kinnear'
p2309
(lp2310
I3
aI3
asS'pure'
p2311
(lp2312
I11
aI11
asS'may'
p2313
(lp2314
I88
aI87
asS'guys'
p2315
(lp2316
I6
aI5
asS'maybe'
p2317
(lp2318
I5
aI5
asS'tale'
p2319
(lp2320
I49
aI49
asS'pointed'
p2321
(lp2322
I5
aI5
asS"davis'"
p2323
(lp2324
I2
aI2
asS'interesting'
p2325
(lp2326
I25
aI25
asS'gem'
p2327
(lp2328
I10
aI10
asS'tucked'
p2329
(lp2330
I2
aI2
asS'soulful'
p2331
(lp2332
I6
aI6
asS'captivates'
p2333
(lp2334
I2
aI2
asS'touching'
p2335
(lp2336
I27
aI27
asS'liberating'
p2337
(lp2338
I3
aI3
asS'richly'
p2339
(lp2340
I7
aI7
asS'stupid'
p2341
(lp2342
I1
aI1
asS'dominate'
p2343
(lp2344
I2
aI2
asS'thinks'
p2345
(lp2346
I1
aI1
asS'language'
p2347
(lp2348
I5
aI5
asS'thing'
p2349
(lp2350
I20
aI20
asS'think'
p2351
(lp2352
I18
aI18
asS'long'
p2353
(lp2354
I32
aI31
asS'suspended'
p2355
(lp2356
I2
aI2
asS'cheesy'
p2357
(lp2358
I2
aI2
asS'little'
p2359
(lp2360
I72
aI70
asS'meaningful'
p2361
(lp2362
I4
aI4
asS'anyone'
p2363
(lp2364
I19
aI19
asS'eyes'
p2365
(lp2366
I19
aI19
asS'sequels'
p2367
(lp2368
I1
aI1
asS'10'
p2369
(lp2370
I2
aI2
asS'13'
p2371
(lp2372
I2
aI2
asS'notches'
p2373
(lp2374
I2
aI2
asS'venture'
p2375
(lp2376
I2
aI2
asS'piccoli'
p2377
(lp2378
I3
aI3
asS'occupied'
p2379
(lp2380
I2
aI2
asS'kevin'
p2381
(lp2382
I3
aI3
asS'recreated'
p2383
(lp2384
I2
aI2
asS'performance'
p2385
(lp2386
I61
aI60
asS'channel'
p2387
(lp2388
I1
aI1
asS'nolan'
p2389
(lp2390
I3
aI3
asS'especially'
p2391
(lp2392
I23
aI23
asS'surprising'
p2393
(lp2394
I16
aI16
asS'contemporary'
p2395
(lp2396
I15
aI15
asS'nakata'
p2397
(lp2398
I2
aI2
asS'black'
p2399
(lp2400
I8
aI8
asS'revisionist'
p2401
(lp2402
I2
aI2
asS'awareness'
p2403
(lp2404
I2
aI2
asS'get'
p2405
(lp2406
I43
aI42
asS'nearly'
p2407
(lp2408
I16
aI16
asS'sum'
p2409
(lp2410
I1
aI1
asS'branagh'
p2411
(lp2412
I2
aI2
asS'honesty'
p2413
(lp2414
I6
aI6
asS'satisfying'
p2415
(lp2416
I18
aI18
asS'gags'
p2417
(lp2418
I7
aI7
asS'boundaries'
p2419
(lp2420
I3
aI3
asS'parent'
p2421
(lp2422
I2
aI2
asS'killing'
p2423
(lp2424
I2
aI2
asS'tour'
p2425
(lp2426
I9
aI9
asS'awards'
p2427
(lp2428
I2
aI2
asS'audiard'
p2429
(lp2430
I2
aI2
asS'unusual'
p2431
(lp2432
I10
aI10
asS'mark'
p2433
(lp2434
I13
aI13
asS'jfk'
p2435
(lp2436
I2
aI2
asS'odyssey'
p2437
(lp2438
I3
aI3
asS'promising'
p2439
(lp2440
I2
aI2
asS'dangerously'
p2441
(lp2442
I3
aI3
asS'wisely'
p2443
(lp2444
I3
aI3
asS'everyday'
p2445
(lp2446
I7
aI7
asS'different'
p2447
(lp2448
I19
aI19
asS'harsh'
p2449
(lp2450
I5
aI5
asS'pay'
p2451
(lp2452
I2
aI2
asS'heartbreak'
p2453
(lp2454
I2
aI2
asS'companion'
p2455
(lp2456
I2
aI2
asS'running'
p2457
(lp2458
I8
aI8
asS'nonjudgmental'
p2459
(lp2460
I2
aI2
asS'money'
p2461
(lp2462
I3
aI3
asS'sights'
p2463
(lp2464
I2
aI2
asS'careers'
p2465
(lp2466
I2
aI2
asS'grip'
p2467
(lp2468
I2
aI2
asS'disappointed'
p2469
(lp2470
I2
aI2
asS'twin'
p2471
(lp2472
I2
aI2
asS'miraculous'
p2473
(lp2474
I2
aI2
asS"weaver's"
p2475
(lp2476
I2
aI2
asS'images'
p2477
(lp2478
I20
aI20
asS'claustrophobic'
p2479
(lp2480
I4
aI4
asS'vistas'
p2481
(lp2482
I2
aI2
asS'violence'
p2483
(lp2484
I4
aI4
asS'mixed'
p2485
(lp2486
I1
aI1
asS'road'
p2487
(lp2488
I11
aI11
asS'quietly'
p2489
(lp2490
I8
aI8
asS'wilde'
p2491
(lp2492
I2
aI2
asS'strip'
p2493
(lp2494
I2
aI2
asS'strikes'
p2495
(lp2496
I5
aI5
asS'sophisticated'
p2497
(lp2498
I5
aI5
asS'romantic'
p2499
(lp2500
I45
aI44
asS"wasn't"
p2501
(lp2502
I1
aI1
asS'dvd'
p2503
(lp2504
I1
aI1
asS'affection'
p2505
(lp2506
I9
aI9
asS'wants'
p2507
(lp2508
I1
aI1
asS'deep'
p2509
(lp2510
I16
aI16
asS'film'
p2511
(lp2512
I459
aI452
asS'tedious'
p2513
(lp2514
I4
aI4
asS'prism'
p2515
(lp2516
I2
aI2
asS'casts'
p2517
(lp2518
I3
aI3
asS"life's"
p2519
(lp2520
I5
aI5
asS'hugely'
p2521
(lp2522
I6
aI6
asS'chabrol'
p2523
(lp2524
I3
aI3
asS"'analyze"
p2525
(lp2526
I3
aI2
asS'straightforward'
p2527
(lp2528
I7
aI7
asS'sitting'
p2529
(lp2530
I3
aI3
asS'arts'
p2531
(lp2532
I1
aI1
asS'intricately'
p2533
(lp2534
I2
aI2
asS'form'
p2535
(lp2536
I17
aI17
asS'20th'
p2537
(lp2538
I4
aI4
asS'neighborhood'
p2539
(lp2540
I2
aI2
asS'set up'
p2541
(lp2542
I2
aI2
asS'creatures'
p2543
(lp2544
I3
aI3
asS'centering'
p2545
(lp2546
I2
aI2
asS'sweetly'
p2547
(lp2548
I5
aI5
asS'mull'
p2549
(lp2550
I3
aI3
asS'affectionately'
p2551
(lp2552
I2
aI2
asS'fantasies'
p2553
(lp2554
I2
aI2
asS'jackie'
p2555
(lp2556
I1
aI1
asS'readily'
p2557
(lp2558
I2
aI2
asS'eye'
p2559
(lp2560
I10
aI10
asS'distinct'
p2561
(lp2562
I4
aI4
asS'canon'
p2563
(lp2564
I2
aI2
asS'brisk'
p2565
(lp2566
I5
aI5
asS"family's"
p2567
(lp2568
I3
aI3
asS'none'
p2569
(lp2570
I5
aI5
asS'shainberg'
p2571
(lp2572
I2
aI2
asS'hour'
p2573
(lp2574
I6
aI6
asS'days'
p2575
(lp2576
I7
aI7
asS'minimum'
p2577
(lp2578
I3
aI3
asS'numbers'
p2579
(lp2580
I2
aI2
asS'sharp'
p2581
(lp2582
I15
aI15
asS'awkward'
p2583
(lp2584
I2
aI2
asS'needy'
p2585
(lp2586
I2
aI2
asS'questioning'
p2587
(lp2588
I3
aI3
asS'pleasure'
p2589
(lp2590
I18
aI18
asS'playing'
p2591
(lp2592
I4
aI4
asS'heartfelt'
p2593
(lp2594
I7
aI7
asS'already'
p2595
(lp2596
I4
aI4
asS'visceral'
p2597
(lp2598
I8
aI8
asS'zhuangzhuang'
p2599
(lp2600
I2
aI2
asS'pena'
p2601
(lp2602
I2
aI2
asS'someone'
p2603
(lp2604
I4
aI4
asS'encouraging'
p2605
(lp2606
I5
aI5
asS'pow'
p2607
(lp2608
I1
aI1
asS'delicious'
p2609
(lp2610
I5
aI5
asS'hard'
p2611
(lp2612
I24
aI23
asS'idea'
p2613
(lp2614
I8
aI8
asS'engaging'
p2615
(lp2616
I22
aI22
asS'lovers'
p2617
(lp2618
I5
aI4
asS'tiresome'
p2619
(lp2620
I1
aI1
asS'pathetic'
p2621
(lp2622
I1
aI1
asS'lawrence'
p2623
(lp2624
I1
aI1
asS'pleasant'
p2625
(lp2626
I10
aI10
asS'extraordinary'
p2627
(lp2628
I5
aI5
asS'members'
p2629
(lp2630
I2
aI2
asS'diversion'
p2631
(lp2632
I5
aI5
asS'dong'
p2633
(lp2634
I5
aI5
asS'mama'
p2635
(lp2636
I2
aI2
asS'excels'
p2637
(lp2638
I3
aI3
asS'part'
p2639
(lp2640
I33
aI29
asS'hearst'
p2641
(lp2642
I2
aI2
asS'recording'
p2643
(lp2644
I3
aI3
asS'ages'
p2645
(lp2646
I7
aI7
asS'built'
p2647
(lp2648
I2
aI2
asS'lifts'
p2649
(lp2650
I4
aI4
asS'commentary'
p2651
(lp2652
I1
aI1
asS'charm'
p2653
(lp2654
I29
aI29
asS'parody'
p2655
(lp2656
I2
aI2
asS'scattered'
p2657
(lp2658
I1
aI1
asS'vampire'
p2659
(lp2660
I2
aI2
asS'carefully'
p2661
(lp2662
I5
aI5
asS'fine'
p2663
(lp2664
I22
aI22
asS'chimes'
p2665
(lp2666
I2
aI2
asS'worthy'
p2667
(lp2668
I13
aI13
asS'express'
p2669
(lp2670
I3
aI3
asS'garcia'
p2671
(lp2672
I3
aI3
asS'spiked'
p2673
(lp2674
I2
aI2
asS'unmistakable'
p2675
(lp2676
I3
aI3
asS'tender'
p2677
(lp2678
I9
aI9
asS'myriad'
p2679
(lp2680
I2
aI2
asS'masterful'
p2681
(lp2682
I5
aI5
asS'premise'
p2683
(lp2684
I12
aI12
asS'inimitable'
p2685
(lp2686
I3
aI3
asS'lightness'
p2687
(lp2688
I3
aI3
asS'foreign'
p2689
(lp2690
I9
aI9
asS'point'
p2691
(lp2692
I18
aI18
asS'simply'
p2693
(lp2694
I16
aI16
asS'openness'
p2695
(lp2696
I3
aI3
asS'throughout'
p2697
(lp2698
I11
aI11
asS"'it's"
p2699
(lp2700
I2
aI2
asS'gag'
p2701
(lp2702
I1
aI1
asS'underdogs'
p2703
(lp2704
I2
aI2
asS'solid'
p2705
(lp2706
I26
aI26
asS'sexuality'
p2707
(lp2708
I2
aI2
asS'fun'
p2709
(lp2710
I74
aI73
asS'relatively'
p2711
(lp2712
I2
aI2
asS'itch'
p2713
(lp2714
I2
aI2
asS'quieter'
p2715
(lp2716
I2
aI2
asS'infuses'
p2717
(lp2718
I4
aI4
asS'purpose'
p2719
(lp2720
I3
aI3
asS'celebratory'
p2721
(lp2722
I2
aI2
asS'finesse'
p2723
(lp2724
I2
aI2
asS'landmark'
p2725
(lp2726
I2
aI2
asS'ludicrous'
p2727
(lp2728
I1
aI1
asS'profoundly'
p2729
(lp2730
I2
aI2
asS'alternative'
p2731
(lp2732
I3
aI3
asS'superficial'
p2733
(lp2734
I1
aI1
asS'danger'
p2735
(lp2736
I3
aI3
asS'bit'
p2737
(lp2738
I32
aI32
asS'effectiveness'
p2739
(lp2740
I2
aI2
asS'forcefulness'
p2741
(lp2742
I2
aI2
asS'scale'
p2743
(lp2744
I7
aI6
asS"mamet's"
p2745
(lp2746
I2
aI2
asS'bogus'
p2747
(lp2748
I1
aI1
asS'epic'
p2749
(lp2750
I13
aI13
asS'blockbusters'
p2751
(lp2752
I2
aI2
asS'subconscious'
p2753
(lp2754
I2
aI2
asS'goods'
p2755
(lp2756
I4
aI4
asS'hackneyed'
p2757
(lp2758
I2
aI2
asS'drama'
p2759
(lp2760
I65
aI63
asS'old school'
p2761
(lp2762
I3
aI3
asS'maelstrom'
p2763
(lp2764
I2
aI2
asS'well paced'
p2765
(lp2766
I2
aI2
asS'aliens'
p2767
(lp2768
I3
aI3
asS'boys'
p2769
(lp2770
I4
aI4
asS'biggie'
p2771
(lp2772
I2
aI2
asS'sort'
p2773
(lp2774
I11
aI11
asS'constant'
p2775
(lp2776
I6
aI6
asS'denying'
p2777
(lp2778
I7
aI7
asS'desert'
p2779
(lp2780
I2
aI2
asS'2002'
p2781
(lp2782
I3
aI3
asS'literary'
p2783
(lp2784
I10
aI10
asS'helps'
p2785
(lp2786
I5
aI5
asS'pleasing'
p2787
(lp2788
I7
aI7
asS'resonant'
p2789
(lp2790
I7
aI7
asS'entire'
p2791
(lp2792
I4
aI4
asS'shock'
p2793
(lp2794
I2
aI2
asS'chomp'
p2795
(lp2796
I2
aI2
asS'uncomfortable'
p2797
(lp2798
I3
aI3
asS'exuberant'
p2799
(lp2800
I2
aI2
asS'depression'
p2801
(lp2802
I3
aI3
asS'access'
p2803
(lp2804
I2
aI2
asS'exercise'
p2805
(lp2806
I7
aI7
asS'healing'
p2807
(lp2808
I3
aI3
asS'hashiguchi'
p2809
(lp2810
I3
aI3
asS'extreme'
p2811
(lp2812
I3
aI3
asS'scandal'
p2813
(lp2814
I2
aI2
asS'cho'
p2815
(lp2816
I3
aI3
asS'award winning'
p2817
(lp2818
I2
aI2
asS'payne'
p2819
(lp2820
I4
aI4
asS'trail'
p2821
(lp2822
I2
aI2
asS'oscar nominated'
p2823
(lp2824
I2
aI2
asS'obvious'
p2825
(lp2826
I10
aI10
asS'daring'
p2827
(lp2828
I8
aI8
asS'de'
p2829
(lp2830
I35
aI33
asS'collection'
p2831
(lp2832
I1
aI1
asS'trembling'
p2833
(lp2834
I2
aI2
asS'metaphors'
p2835
(lp2836
I1
aI1
asS'furious'
p2837
(lp2838
I2
aI2
asS'eerily'
p2839
(lp2840
I2
aI2
asS'flattering'
p2841
(lp2842
I2
aI2
asS'vividly'
p2843
(lp2844
I7
aI7
asS'willing'
p2845
(lp2846
I5
aI5
asS'kindness'
p2847
(lp2848
I2
aI2
asS'stunts'
p2849
(lp2850
I2
aI2
asS'thrill'
p2851
(lp2852
I5
aI5
asS'lathan'
p2853
(lp2854
I2
aI2
asS'references'
p2855
(lp2856
I1
aI1
asS'warner'
p2857
(lp2858
I3
aI3
asS'red'
p2859
(lp2860
I13
aI13
asS'jessica'
p2861
(lp2862
I3
aI3
asS'coen'
p2863
(lp2864
I2
aI2
asS'yarn'
p2865
(lp2866
I6
aI6
asS'grieving'
p2867
(lp2868
I2
aI2
asS'finest'
p2869
(lp2870
I6
aI6
asS'elegiac'
p2871
(lp2872
I2
aI2
asS'bogdanovich'
p2873
(lp2874
I4
aI4
asS'ancient'
p2875
(lp2876
I4
aI4
asS'vulgar'
p2877
(lp2878
I2
aI2
asS'realistically'
p2879
(lp2880
I4
aI4
asS'self esteem'
p2881
(lp2882
I3
aI3
asS'unsubtle'
p2883
(lp2884
I2
aI2
asS'loved'
p2885
(lp2886
I7
aI7
asS'imaginative'
p2887
(lp2888
I10
aI10
asS'comfortable'
p2889
(lp2890
I5
aI5
asS'apparently'
p2891
(lp2892
I1
aI1
asS'davies'
p2893
(lp2894
I2
aI2
asS"reggio's"
p2895
(lp2896
I4
aI4
asS'unsettled'
p2897
(lp2898
I2
aI2
asS'unless'
p2899
(lp2900
I1
aI1
asS'nicholson'
p2901
(lp2902
I4
aI3
asS'absorbing'
p2903
(lp2904
I9
aI9
asS'text'
p2905
(lp2906
I1
aI1
asS'photography'
p2907
(lp2908
I6
aI6
asS'perfection'
p2909
(lp2910
I5
aI5
asS'motherhood'
p2911
(lp2912
I2
aI2
asS'gibson'
p2913
(lp2914
I4
aI4
asS'cinematically'
p2915
(lp2916
I3
aI3
asS'enhances'
p2917
(lp2918
I2
aI2
asS'imaginatively'
p2919
(lp2920
I2
aI2
asS'literate'
p2921
(lp2922
I5
aI5
asS'routine'
p2923
(lp2924
I1
aI1
asS'sorrow'
p2925
(lp2926
I2
aI2
asS'glorious'
p2927
(lp2928
I4
aI4
asS'relevant'
p2929
(lp2930
I2
aI2
asS'teasing'
p2931
(lp2932
I2
aI2
asS'laugh'
p2933
(lp2934
I8
aI7
asS'tremendous'
p2935
(lp2936
I5
aI5
asS'invigorating'
p2937
(lp2938
I2
aI2
asS"writers'"
p2939
(lp2940
I2
aI2
asS'napoleon'
p2941
(lp2942
I3
aI3
asS'homes'
p2943
(lp2944
I4
aI4
asS'atmospheric'
p2945
(lp2946
I4
aI4
asS'plain'
p2947
(lp2948
I2
aI2
asS'appearance'
p2949
(lp2950
I2
aI2
asS'frustrating'
p2951
(lp2952
I2
aI2
asS'partner'
p2953
(lp2954
I2
aI2
asS'watchful'
p2955
(lp2956
I2
aI2
asS')'
p2957
(lp2958
I63
aI57
asS'novels'
p2959
(lp2960
I2
aI2
asS'sisters'
p2961
(lp2962
I4
aI4
asS'usual'
p2963
(lp2964
I14
aI14
asS'domestic'
p2965
(lp2966
I4
aI4
asS'add'
p2967
(lp2968
I6
aI6
asS'well done'
p2969
(lp2970
I2
aI2
asS'like'
p2971
(lp2972
I162
aI157
asS'inviting'
p2973
(lp2974
I3
aI3
asS'vibrant'
p2975
(lp2976
I10
aI10
asS'journalism'
p2977
(lp2978
I2
aI2
asS'works'
p2979
(lp2980
I41
aI41
asS'interludes'
p2981
(lp2982
I2
aI2
asS'convey'
p2983
(lp2984
I4
aI4
asS'happens'
p2985
(lp2986
I5
aI5
asS'well executed'
p2987
(lp2988
I2
aI2
asS'host'
p2989
(lp2990
I3
aI3
asS'smartly'
p2991
(lp2992
I7
aI6
asS'introduces'
p2993
(lp2994
I4
aI4
asS'flat out'
p2995
(lp2996
I2
aI2
asS'guard'
p2997
(lp2998
I2
aI2
asS'confident'
p2999
(lp3000
I3
aI3
asS'biggest'
p3001
(lp3002
I2
aI2
asS'maze'
p3003
(lp3004
I2
aI2
asS'sequel'
p3005
(lp3006
I8
aI8
asS'reminds'
p3007
(lp3008
I6
aI6
asS'editing'
p3009
(lp3010
I3
aI3
asS'j'
p3011
(lp3012
I9
aI9
asS'minutes'
p3013
(lp3014
I20
aI20
asS'shooting'
p3015
(lp3016
I1
aI1
asS'transitions'
p3017
(lp3018
I2
aI2
asS'detail'
p3019
(lp3020
I8
aI8
asS'surreal'
p3021
(lp3022
I5
aI5
asS'adam'
p3023
(lp3024
I1
aI1
asS'gloriously'
p3025
(lp3026
I4
aI4
asS'oral'
p3027
(lp3028
I2
aI2
asS"spielberg's"
p3029
(lp3030
I3
aI3
asS'coherent'
p3031
(lp3032
I1
aI1
asS'wryly'
p3033
(lp3034
I2
aI2
asS'image'
p3035
(lp3036
I4
aI4
asS'suspenseful'
p3037
(lp3038
I5
aI5
asS'sleep'
p3039
(lp3040
I1
aI1
asS'crises'
p3041
(lp3042
I2
aI2
asS'striking'
p3043
(lp3044
I10
aI10
asS'risk'
p3045
(lp3046
I2
aI2
asS'every'
p3047
(lp3048
I42
aI42
asS'frailty'
p3049
(lp3050
I6
aI6
asS'loneliness'
p3051
(lp3052
I4
aI4
asS'glued'
p3053
(lp3054
I2
aI2
asS'weddings'
p3055
(lp3056
I3
aI3
asS'emptiness'
p3057
(lp3058
I1
aI1
asS'expressive'
p3059
(lp3060
I2
aI2
asS'conduct'
p3061
(lp3062
I3
aI3
asS'philippe'
p3063
(lp3064
I2
aI2
asS'feisty'
p3065
(lp3066
I2
aI2
asS'one room'
p3067
(lp3068
I2
aI2
asS'represented'
p3069
(lp3070
I3
aI3
asS'kieran'
p3071
(lp3072
I2
aI2
asS'tu'
p3073
(lp3074
I2
aI2
asS'patience'
p3075
(lp3076
I5
aI5
asS'clich\xe9s'
p3077
(lp3078
I3
aI3
asS'would'
p3079
(lp3080
I43
aI43
asS'grief'
p3081
(lp3082
I11
aI11
asS'excellent'
p3083
(lp3084
I20
aI20
asS'mr'
p3085
(lp3086
I28
aI25
asS'mess'
p3087
(lp3088
I8
aI7
asS'splendid'
p3089
(lp3090
I7
aI7
asS'hypnotic'
p3091
(lp3092
I3
aI3
asS'complexity'
p3093
(lp3094
I7
aI7
asS'enter'
p3095
(lp3096
I1
aI1
asS'amir'
p3097
(lp3098
I2
aI2
asS'compelling'
p3099
(lp3100
I44
aI44
asS'thought provoking'
p3101
(lp3102
I14
aI14
asS'columbine'
p3103
(lp3104
I3
aI3
asS'shadows'
p3105
(lp3106
I3
aI3
asS'explode'
p3107
(lp3108
I3
aI3
asS'lasting'
p3109
(lp3110
I2
aI2
asS'psychic'
p3111
(lp3112
I3
aI3
asS'free'
p3113
(lp3114
I3
aI3
asS'masterpiece'
p3115
(lp3116
I14
aI14
asS'correctness'
p3117
(lp3118
I4
aI4
asS'heck'
p3119
(lp3120
I3
aI3
asS'onto'
p3121
(lp3122
I1
aI1
asS'fantasy'
p3123
(lp3124
I14
aI14
asS'philosophical'
p3125
(lp3126
I8
aI8
asS'insightful'
p3127
(lp3128
I10
aI10
asS'urban'
p3129
(lp3130
I14
aI14
asS'roles'
p3131
(lp3132
I7
aI7
asS'perspective'
p3133
(lp3134
I8
aI8
asS'snow'
p3135
(lp3136
I2
aI2
asS'elegance'
p3137
(lp3138
I3
aI3
asS'though'
p3139
(lp3140
I59
aI59
asS'glow'
p3141
(lp3142
I3
aI3
asS'devastating'
p3143
(lp3144
I8
aI8
asS'flow'
p3145
(lp3146
I7
aI7
asS'entertaining'
p3147
(lp3148
I58
aI58
asS'saga'
p3149
(lp3150
I5
aI5
asS'queen'
p3151
(lp3152
I1
aI1
asS'spite'
p3153
(lp3154
I3
aI3
asS'claude'
p3155
(lp3156
I3
aI3
asS'situations'
p3157
(lp3158
I2
aI2
asS'mixture'
p3159
(lp3160
I6
aI6
asS'fluid'
p3161
(lp3162
I4
aI4
asS'unhurried'
p3163
(lp3164
I3
aI3
asS'shots'
p3165
(lp3166
I3
aI3
asS'boring'
p3167
(lp3168
I2
aI2
asS'1960s'
p3169
(lp3170
I3
aI3
asS'resist'
p3171
(lp3172
I5
aI5
asS'disturbing'
p3173
(lp3174
I10
aI10
asS'temptation'
p3175
(lp3176
I2
aI2
asS'deceptively'
p3177
(lp3178
I6
aI6
asS'hopefully'
p3179
(lp3180
I3
aI3
asS'approach'
p3181
(lp3182
I6
aI6
asS'weak'
p3183
(lp3184
I1
aI1
asS"nair's"
p3185
(lp3186
I4
aI4
asS'rhythms'
p3187
(lp3188
I6
aI6
asS'haynes'
p3189
(lp3190
I4
aI4
asS'quickly'
p3191
(lp3192
I4
aI4
asS'procedure'
p3193
(lp3194
I2
aI2
asS'no frills'
p3195
(lp3196
I3
aI3
asS'experience'
p3197
(lp3198
I27
aI27
asS'pathology'
p3199
(lp3200
I3
aI3
asS'complex'
p3201
(lp3202
I15
aI15
asS'forceful'
p3203
(lp3204
I4
aI4
asS'hearts'
p3205
(lp3206
I7
aI7
asS'jean'
p3207
(lp3208
I3
aI3
asS'humanity'
p3209
(lp3210
I8
aI8
asS'successfully'
p3211
(lp3212
I4
aI4
asS'cynics'
p3213
(lp3214
I2
aI2
asS'ice'
p3215
(lp3216
I2
aI2
asS'everything'
p3217
(lp3218
I15
aI14
asS'duke'
p3219
(lp3220
I4
aI4
asS'finely'
p3221
(lp3222
I3
aI3
asS'high spirited'
p3223
(lp3224
I2
aI2
asS'transform'
p3225
(lp3226
I2
aI2
asS'unpretentious'
p3227
(lp3228
I3
aI3
asS'medium'
p3229
(lp3230
I5
aI5
asS'illuminating'
p3231
(lp3232
I3
aI3
asS'heartwarming'
p3233
(lp3234
I7
aI7
asS'constructed'
p3235
(lp3236
I9
aI9
asS'no'
p3237
(lp3238
I67
aI60
asS'tim'
p3239
(lp3240
I4
aI4
asS'nuance'
p3241
(lp3242
I5
aI5
asS'uniformly'
p3243
(lp3244
I3
aI3
asS'vietnam'
p3245
(lp3246
I4
aI4
asS'serious'
p3247
(lp3248
I8
aI8
asS'remarkable'
p3249
(lp3250
I14
aI14
asS'particular'
p3251
(lp3252
I2
aI2
asS'remarkably'
p3253
(lp3254
I10
aI10
asS'sloppy'
p3255
(lp3256
I2
aI2
asS'cool'
p3257
(lp3258
I12
aI12
asS'impressive'
p3259
(lp3260
I16
aI16
asS'taut'
p3261
(lp3262
I2
aI2
asS'entertain'
p3263
(lp3264
I6
aI6
asS'gorgeously'
p3265
(lp3266
I3
aI3
asS'emerge'
p3267
(lp3268
I5
aI5
asS'vivid'
p3269
(lp3270
I11
aI11
asS'sports'
p3271
(lp3272
I8
aI8
asS'memory'
p3273
(lp3274
I10
aI10
asS'insights'
p3275
(lp3276
I2
aI2
asS'thousands'
p3277
(lp3278
I4
aI4
asS'unconditional'
p3279
(lp3280
I3
aI3
asS'stroke'
p3281
(lp3282
I5
aI5
asS'kosminsky'
p3283
(lp3284
I3
aI3
asS'speaks'
p3285
(lp3286
I7
aI7
asS'heartbreaking'
p3287
(lp3288
I6
aI6
asS'outlandish'
p3289
(lp3290
I3
aI3
asS'amuse'
p3291
(lp3292
I3
aI3
asS'worship'
p3293
(lp3294
I2
aI2
asS'offers'
p3295
(lp3296
I30
aI30
asS'lonely'
p3297
(lp3298
I3
aI3
asS'conversations'
p3299
(lp3300
I4
aI4
asS'name'
p3301
(lp3302
I4
aI4
asS'realistic'
p3303
(lp3304
I13
aI13
asS'catching'
p3305
(lp3306
I3
aI3
asS'adequately'
p3307
(lp3308
I3
aI3
asS'miyazaki'
p3309
(lp3310
I2
aI2
asS'skillfully'
p3311
(lp3312
I3
aI3
asS'unfocused'
p3313
(lp3314
I1
aI1
asS'clumsy'
p3315
(lp3316
I1
aI1
asS'inventive'
p3317
(lp3318
I17
aI17
asS'returns'
p3319
(lp3320
I6
aI6
asS'masala'
p3321
(lp3322
I2
aI2
asS'gives'
p3323
(lp3324
I33
aI33
asS'seduced'
p3325
(lp3326
I2
aI2
asS'alan'
p3327
(lp3328
I3
aI3
asS'wide'
p3329
(lp3330
I3
aI3
asS"mcgrath's"
p3331
(lp3332
I4
aI4
asS'unfortunately'
p3333
(lp3334
I3
aI3
asS'rent'
p3335
(lp3336
I1
aI1
asS'sorority'
p3337
(lp3338
I1
aI1
asS'betrayal'
p3339
(lp3340
I5
aI5
asS'falls'
p3341
(lp3342
I4
aI4
asS'vitality'
p3343
(lp3344
I5
aI5
asS'hungry'
p3345
(lp3346
I2
aI2
asS'recipe'
p3347
(lp3348
I3
aI3
asS'superb'
p3349
(lp3350
I5
aI5
asS'crime'
p3351
(lp3352
I5
aI5
asS'jokes'
p3353
(lp3354
I4
aI4
asS'reveals'
p3355
(lp3356
I13
aI13
asS'college'
p3357
(lp3358
I1
aI1
asS'fails'
p3359
(lp3360
I3
aI3
asS'generosity'
p3361
(lp3362
I2
aI2
asS'quiet'
p3363
(lp3364
I15
aI15
asS'color'
p3365
(lp3366
I6
aI6
asS'nicole'
p3367
(lp3368
I3
aI3
asS'confessions'
p3369
(lp3370
I3
aI3
asS'attentive'
p3371
(lp3372
I2
aI2
asS'cast'
p3373
(lp3374
I51
aI51
asS'breathtakingly'
p3375
(lp3376
I3
aI3
asS'reminded'
p3377
(lp3378
I3
aI3
asS'reminder'
p3379
(lp3380
I5
aI5
asS'week'
p3381
(lp3382
I1
aI1
asS'deft'
p3383
(lp3384
I4
aI4
asS'applaud'
p3385
(lp3386
I3
aI3
asS'director'
p3387
(lp3388
I77
aI77
asS'devoid'
p3389
(lp3390
I2
aI2
asS'weep'
p3391
(lp3392
I3
aI3
asS'cartoon'
p3393
(lp3394
I4
aI4
asS'longing'
p3395
(lp3396
I4
aI4
asS'relief'
p3397
(lp3398
I4
aI4
asS'captures'
p3399
(lp3400
I16
aI16
asS'kill'
p3401
(lp3402
I1
aI1
asS'halfway'
p3403
(lp3404
I1
aI1
asS'hint'
p3405
(lp3406
I2
aI2
asS'seems'
p3407
(lp3408
I24
aI24
asS'except'
p3409
(lp3410
I3
aI3
asS'exquisitely'
p3411
(lp3412
I4
aI4
asS'oddly'
p3413
(lp3414
I9
aI9
asS'japanese'
p3415
(lp3416
I10
aI10
asS'intact'
p3417
(lp3418
I3
aI3
asS'slice'
p3419
(lp3420
I10
aI10
asS'mood'
p3421
(lp3422
I11
aI11
asS'showtime'
p3423
(lp3424
I2
aI2
asS'provides'
p3425
(lp3426
I16
aI16
asS'metropolis'
p3427
(lp3428
I7
aI6
asS'stereotypes'
p3429
(lp3430
I2
aI2
asS'oh'
p3431
(lp3432
I1
aI1
asS'stand'
p3433
(lp3434
I12
aI12
asS'racism'
p3435
(lp3436
I2
aI2
asS'cultures'
p3437
(lp3438
I6
aI6
asS'taylor'
p3439
(lp3440
I2
aI2
asS'cinema'
p3441
(lp3442
I34
aI34
asS'taste'
p3443
(lp3444
I6
aI6
asS'bleakly'
p3445
(lp3446
I2
aI2
asS'tasty'
p3447
(lp3448
I8
aI8
asS'deserve'
p3449
(lp3450
I2
aI2
asS'separate'
p3451
(lp3452
I4
aI4
asS'finale'
p3453
(lp3454
I1
aI1
asS'calls'
p3455
(lp3456
I3
aI3
asS'odds'
p3457
(lp3458
I6
aI6
asS'chinese'
p3459
(lp3460
I5
aI5
asS'lack'
p3461
(lp3462
I8
aI8
asS'meditation'
p3463
(lp3464
I10
aI10
asS'glimpse'
p3465
(lp3466
I9
aI9
asS'sons'
p3467
(lp3468
I2
aI2
asS'worst'
p3469
(lp3470
I3
aI3
asS'awful'
p3471
(lp3472
I2
aI2
asS'deeply'
p3473
(lp3474
I17
aI17
asS'cl\xe1sico'
p3475
(lp3476
I2
aI2
asS'guns'
p3477
(lp3478
I1
aI1
asS'condensed'
p3479
(lp3480
I2
aI2
asS'allows'
p3481
(lp3482
I9
aI9
asS'self loathing'
p3483
(lp3484
I2
aI2
asS'forcefully'
p3485
(lp3486
I3
aI3
asS'flat'
p3487
(lp3488
I1
aI1
asS'knows'
p3489
(lp3490
I17
aI15
asS'open ended'
p3491
(lp3492
I3
aI3
asS'overwrought'
p3493
(lp3494
I2
aI2
asS'simplicity'
p3495
(lp3496
I3
aI3
asS'orbits'
p3497
(lp3498
I2
aI2
asS'reflect'
p3499
(lp3500
I3
aI3
asS'adventure'
p3501
(lp3502
I19
aI18
asS'concerns'
p3503
(lp3504
I2
aI2
asS'shortcomings'
p3505
(lp3506
I2
aI2
asS'short'
p3507
(lp3508
I10
aI10
asS'tsai'
p3509
(lp3510
I5
aI5
asS'style'
p3511
(lp3512
I25
aI25
asS'might'
p3513
(lp3514
I40
aI40
asS'return'
p3515
(lp3516
I10
aI10
asS'huskies'
p3517
(lp3518
I2
aI2
asS'day lewis'
p3519
(lp3520
I2
aI2
asS'inherent'
p3521
(lp3522
I5
aI5
asS'friendship'
p3523
(lp3524
I11
aI11
asS'weight'
p3525
(lp3526
I2
aI2
asS'generation'
p3527
(lp3528
I7
aI6
asS'scratching'
p3529
(lp3530
I2
aI2
asS'wondered'
p3531
(lp3532
I3
aI3
asS'self awareness'
p3533
(lp3534
I2
aI2
asS'friday'
p3535
(lp3536
I2
aI2
asS'enveloping'
p3537
(lp3538
I2
aI2
asS'prejudice'
p3539
(lp3540
I3
aI3
asS'bland'
p3541
(lp3542
I4
aI4
asS'scathing'
p3543
(lp3544
I3
aI3
asS'script'
p3545
(lp3546
I23
aI23
asS'grimy'
p3547
(lp3548
I2
aI2
asS'imperfect'
p3549
(lp3550
I2
aI2
asS'scooby'
p3551
(lp3552
I1
aI1
asS'ayurveda'
p3553
(lp3554
I2
aI2
asS'risky'
p3555
(lp3556
I3
aI3
asS'outstanding'
p3557
(lp3558
I3
aI3
asS'pianist'
p3559
(lp3560
I4
aI4
asS'reach'
p3561
(lp3562
I2
aI2
asS'nothing'
p3563
(lp3564
I21
aI21
asS'screenwriter'
p3565
(lp3566
I2
aI2
asS'traditional'
p3567
(lp3568
I6
aI6
asS'activity'
p3569
(lp3570
I2
aI2
asS'art'
p3571
(lp3572
I30
aI28
asS'dumb'
p3573
(lp3574
I5
aI5
asS'distinctive'
p3575
(lp3576
I6
aI6
asS'corruption'
p3577
(lp3578
I3
aI3
asS'latin'
p3579
(lp3580
I2
aI2
asS'market'
p3581
(lp3582
I1
aI1
asS'lyrical'
p3583
(lp3584
I5
aI5
asS'sweet'
p3585
(lp3586
I28
aI28
asS'unforced'
p3587
(lp3588
I3
aI3
asS'startling'
p3589
(lp3590
I5
aI5
asS'political'
p3591
(lp3592
I18
aI18
asS'appears'
p3593
(lp3594
I3
aI3
asS'quaid'
p3595
(lp3596
I2
aI2
asS'moving'
p3597
(lp3598
I36
aI36
asS'lacking'
p3599
(lp3600
I3
aI3
asS'cheer'
p3601
(lp3602
I3
aI3
asS'questions'
p3603
(lp3604
I10
aI10
asS'likeable'
p3605
(lp3606
I4
aI4
asS'moody'
p3607
(lp3608
I6
aI6
asS'essential'
p3609
(lp3610
I2
aI2
asS'sprightly'
p3611
(lp3612
I3
aI3
asS'anne'
p3613
(lp3614
I1
aI1
asS'intense'
p3615
(lp3616
I12
aI12
asS'naivet\xe9'
p3617
(lp3618
I2
aI2
asS'rote'
p3619
(lp3620
I1
aI1
asS'range'
p3621
(lp3622
I2
aI2
asS'impresses'
p3623
(lp3624
I2
aI2
asS"hasn't"
p3625
(lp3626
I3
aI3
asS'friel'
p3627
(lp3628
I3
aI3
asS'steeped'
p3629
(lp3630
I4
aI4
asS'graham'
p3631
(lp3632
I3
aI3
asS'peace'
p3633
(lp3634
I2
aI2
asS'muddled'
p3635
(lp3636
I1
aI1
asS'suffers'
p3637
(lp3638
I2
aI2
asS'winds'
p3639
(lp3640
I2
aI2
asS'issues'
p3641
(lp3642
I10
aI9
asS'tenderness'
p3643
(lp3644
I4
aI4
asS'gripping'
p3645
(lp3646
I11
aI11
asS"you'd"
p3647
(lp3648
I7
aI7
asS'sensation'
p3649
(lp3650
I2
aI2
asS'reunion'
p3651
(lp3652
I3
aI3
asS"man's"
p3653
(lp3654
I8
aI8
asS'19th'
p3655
(lp3656
I2
aI2
asS'sexy'
p3657
(lp3658
I11
aI11
asS'spiced'
p3659
(lp3660
I3
aI3
asS'&'
p3661
(lp3662
I7
aI7
asS'examination'
p3663
(lp3664
I16
aI16
asS'bittersweet'
p3665
(lp3666
I7
aI7
asS'rapt'
p3667
(lp3668
I2
aI2
asS'something'
p3669
(lp3670
I45
aI43
asS'sit'
p3671
(lp3672
I6
aI6
asS'buoyant'
p3673
(lp3674
I7
aI7
asS'six'
p3675
(lp3676
I1
aI1
asS'struggles'
p3677
(lp3678
I4
aI4
asS'instead'
p3679
(lp3680
I6
aI6
asS'cliched'
p3681
(lp3682
I1
aI1
asS'looks'
p3683
(lp3684
I11
aI11
asS'polished'
p3685
(lp3686
I7
aI7
asS'[shyamalan]'
p3687
(lp3688
I2
aI2
asS'material'
p3689
(lp3690
I18
aI18
asS'crass'
p3691
(lp3692
I1
aI1
asS'feast'
p3693
(lp3694
I6
aI6
asS'category'
p3695
(lp3696
I1
aI1
asS'maintains'
p3697
(lp3698
I8
aI8
asS"doesn't"
p3699
(lp3700
I51
aI50
asS'accent'
p3701
(lp3702
I1
aI1
asS'shallow'
p3703
(lp3704
I2
aI2
asS'isolation'
p3705
(lp3706
I3
aI3
asS'infectious'
p3707
(lp3708
I4
aI4
asS'martha'
p3709
(lp3710
I7
aI6
asS'combat'
p3711
(lp3712
I4
aI4
asS'deny'
p3713
(lp3714
I3
aI3
asS'refreshing'
p3715
(lp3716
I8
aI8
asS'pleaser'
p3717
(lp3718
I2
aI2
asS'purely'
p3719
(lp3720
I4
aI4
asS'utter'
p3721
(lp3722
I1
aI1
asS'debate'
p3723
(lp3724
I5
aI5
asS'watching'
p3725
(lp3726
I30
aI27
asS'ghetto'
p3727
(lp3728
I5
aI5
asS'noyce'
p3729
(lp3730
I4
aI4
asS'crude'
p3731
(lp3732
I1
aI1
asS'ability'
p3733
(lp3734
I10
aI10
asS'embarrassment'
p3735
(lp3736
I2
aI2
asS'paradoxically'
p3737
(lp3738
I2
aI2
asS'grain'
p3739
(lp3740
I2
aI2
asS'respect'
p3741
(lp3742
I10
aI9
asS'unlike'
p3743
(lp3744
I10
aI10
asS'choices'
p3745
(lp3746
I7
aI7
asS'stunning'
p3747
(lp3748
I8
aI8
asS'grandeur'
p3749
(lp3750
I6
aI6
asS'spirited'
p3751
(lp3752
I4
aI4
asS'riveted'
p3753
(lp3754
I2
aI2
asS'offensive'
p3755
(lp3756
I1
aI1
asS'happiness'
p3757
(lp3758
I3
aI3
asS'rapid'
p3759
(lp3760
I2
aI2
asS'guts'
p3761
(lp3762
I4
aI4
asS'simple'
p3763
(lp3764
I20
aI20
asS'pitch perfect'
p3765
(lp3766
I2
aI2
asS'captivating'
p3767
(lp3768
I6
aI6
asS'loses'
p3769
(lp3770
I3
aI3
asS'repressed'
p3771
(lp3772
I3
aI3
asS'wonders'
p3773
(lp3774
I3
aI3
asS'growth'
p3775
(lp3776
I3
aI3
asS'reveal'
p3777
(lp3778
I3
aI3
asS'rare'
p3779
(lp3780
I18
aI18
asS'van'
p3781
(lp3782
I1
aI1
asS'made'
p3783
(lp3784
I48
aI48
asS'incredible'
p3785
(lp3786
I3
aI3
asS'junk'
p3787
(lp3788
I1
aI1
asS'volumes'
p3789
(lp3790
I3
aI3
as.