(dp0
S'woody'
p1
(lp2
I10
aI10
asS'lord'
p3
(lp4
I2
aI2
asS'desired'
p5
(lp6
I2
aI2
asS'levy'
p7
(lp8
I2
aI2
asS'screaming'
p9
(lp10
I7
aI7
asS'disturb'
p11
(lp12
I2
aI2
asS'prize'
p13
(lp14
I2
aI2
asS'wooden'
p15
(lp16
I6
aI6
asS'succession'
p17
(lp18
I2
aI2
asS'tired'
p19
(lp20
I18
aI18
asS'hanging'
p21
(lp22
I2
aI2
asS'elegant'
p23
(lp24
I7
aI7
asS'valiant'
p25
(lp26
I2
aI2
asS'distinctly'
p27
(lp28
I2
aI2
asS'fingers'
p29
(lp30
I2
aI2
asS'uplifting'
p31
(lp32
I6
aI6
asS"i'd"
p33
(lp34
I10
aI9
asS'psychological'
p35
(lp36
I20
aI20
asS'music'
p37
(lp38
I59
aI58
asS'suffocated'
p39
(lp40
I2
aI2
asS'mired'
p41
(lp42
I3
aI3
asS'successful'
p43
(lp44
I17
aI17
asS'brings'
p45
(lp46
I19
aI19
asS'mesmerize'
p47
(lp48
I2
aI2
asS'20th'
p49
(lp50
I4
aI4
asS'90'
p51
(lp52
I14
aI14
asS'95'
p53
(lp54
I3
aI3
asS'morally'
p55
(lp56
I5
aI5
asS'huppert'
p57
(lp58
I5
aI5
asS'absolute'
p59
(lp60
I3
aI3
asS'travel'
p61
(lp62
I6
aI6
asS'feature'
p63
(lp64
I37
aI37
asS'hot'
p65
(lp66
I8
aI8
asS'significance'
p67
(lp68
I2
aI2
asS'beauty'
p69
(lp70
I16
aI16
asS'cuisine'
p71
(lp72
I3
aI3
asS'effective'
p73
(lp74
I22
aI22
asS"green's"
p75
(lp76
I2
aI2
asS'fleetingly'
p77
(lp78
I2
aI2
asS'subplots'
p79
(lp80
I4
aI4
asS'alias'
p81
(lp82
I2
aI2
asS'democratic'
p83
(lp84
I2
aI2
asS'wind'
p85
(lp86
I4
aI4
asS'misdemeanor'
p87
(lp88
I2
aI2
asS'bringing'
p89
(lp90
I4
aI4
asS'survivors'
p91
(lp92
I2
aI2
asS'undercut'
p93
(lp94
I4
aI4
asS'knockout'
p95
(lp96
I2
aI2
asS'series'
p97
(lp98
I48
aI47
asS'smirk'
p99
(lp100
I2
aI2
asS'encourage'
p101
(lp102
I2
aI2
asS'assured'
p103
(lp104
I8
aI8
asS'similarly'
p105
(lp106
I2
aI2
asS'bitter'
p107
(lp108
I8
aI8
asS'rewards'
p109
(lp110
I4
aI4
asS'predictable'
p111
(lp112
I46
aI46
asS'spreads'
p113
(lp114
I2
aI2
asS'spectrum'
p115
(lp116
I2
aI2
asS"'n"
p117
(lp118
I2
aI2
asS'amusing'
p119
(lp120
I36
aI36
asS'diminishing'
p121
(lp122
I2
aI2
asS'y'
p123
(lp124
I22
aI14
asS'episode'
p125
(lp126
I12
aI12
asS'alas'
p127
(lp128
I3
aI3
asS'bomb'
p129
(lp130
I3
aI3
asS'unconditional'
p131
(lp132
I3
aI3
asS'caper'
p133
(lp134
I8
aI8
asS'busy'
p135
(lp136
I8
aI8
asS'theme'
p137
(lp138
I6
aI6
asS'touched'
p139
(lp140
I4
aI4
asS'rich'
p141
(lp142
I19
aI19
asS'rice'
p143
(lp144
I3
aI3
asS'foremost'
p145
(lp146
I3
aI3
asS'unfortunately'
p147
(lp148
I15
aI15
asS"chabrol's"
p149
(lp150
I3
aI3
asS'nicely'
p151
(lp152
I13
aI13
asS'greene'
p153
(lp154
I2
aI2
asS'eyelids'
p155
(lp156
I2
aI2
asS"'n'"
p157
(lp158
I2
aI2
asS'disaster'
p159
(lp160
I7
aI7
asS'result'
p161
(lp162
I18
aI18
asS'alternative'
p163
(lp164
I3
aI3
asS'best'
p165
(lp166
I144
aI141
asS'ambitions'
p167
(lp168
I3
aI3
asS'score'
p169
(lp170
I9
aI9
asS'skimpy'
p171
(lp172
I2
aI2
asS'discipline'
p173
(lp174
I2
aI2
asS'parallels'
p175
(lp176
I2
aI2
asS'19th century'
p177
(lp178
I2
aI2
asS'pity'
p179
(lp180
I8
aI8
asS'voyeuristic'
p181
(lp182
I2
aI2
asS'surprises'
p183
(lp184
I15
aI15
asS'argue'
p185
(lp186
I2
aI2
asS'retelling'
p187
(lp188
I2
aI2
asS'reconsideration'
p189
(lp190
I2
aI2
asS'smash'
p191
(lp192
I2
aI2
asS'much'
p193
(lp194
I226
aI223
asS'adroitly'
p195
(lp196
I3
aI3
asS'incompetent'
p197
(lp198
I4
aI4
asS'doldrums'
p199
(lp200
I2
aI2
asS'life'
p201
(lp202
I124
aI124
asS'spit'
p203
(lp204
I2
aI2
asS'filmmaker'
p205
(lp206
I29
aI29
asS'worked'
p207
(lp208
I9
aI9
asS'commerce'
p209
(lp210
I4
aI4
asS'participatory'
p211
(lp212
I2
aI2
asS'castro'
p213
(lp214
I3
aI3
asS'imposter'
p215
(lp216
I2
aI2
asS'letdown'
p217
(lp218
I4
aI4
asS'player'
p219
(lp220
I4
aI4
asS'specter'
p221
(lp222
I2
aI2
asS'credit'
p223
(lp224
I8
aI7
asS'things'
p225
(lp226
I59
aI59
asS'cumulative'
p227
(lp228
I2
aI2
asS'principals'
p229
(lp230
I3
aI3
asS'inadvertently'
p231
(lp232
I2
aI2
asS'captivates'
p233
(lp234
I2
aI2
asS'preachy'
p235
(lp236
I8
aI8
asS'lucas'
p237
(lp238
I4
aI4
asS'echoes'
p239
(lp240
I2
aI2
asS'disguise'
p241
(lp242
I11
aI11
asS'innocent'
p243
(lp244
I5
aI5
asS'feel good'
p245
(lp246
I6
aI6
asS'unique'
p247
(lp248
I11
aI11
asS'seaside'
p249
(lp250
I2
aI2
asS'creek'
p251
(lp252
I2
aI2
asS'macabre'
p253
(lp254
I2
aI2
asS'creep'
p255
(lp256
I2
aI2
asS'bottom'
p257
(lp258
I7
aI7
asS'creative'
p259
(lp260
I16
aI16
asS'witty'
p261
(lp262
I17
aI17
asS'sci fi'
p263
(lp264
I13
aI13
asS'post'
p265
(lp266
I2
aI2
asS'shifting'
p267
(lp268
I3
aI3
asS'starring'
p269
(lp270
I6
aI6
asS'transcends'
p271
(lp272
I2
aI2
asS'despair'
p273
(lp274
I7
aI7
asS'spins'
p275
(lp276
I2
aI2
asS'son'
p277
(lp278
I10
aI10
asS'beings'
p279
(lp280
I3
aI3
asS'grasping'
p281
(lp282
I2
aI2
asS'jaw droppingly'
p283
(lp284
I2
aI2
asS'happy'
p285
(lp286
I16
aI16
asS'week'
p287
(lp288
I6
aI6
asS'myopic'
p289
(lp290
I2
aI2
asS'epps'
p291
(lp292
I3
aI3
asS'textbook'
p293
(lp294
I3
aI3
asS'proves'
p295
(lp296
I27
aI27
asS'ambitious'
p297
(lp298
I18
aI17
asS'momentary'
p299
(lp300
I2
aI2
asS"rose's"
p301
(lp302
I2
aI2
asS'rolling'
p303
(lp304
I3
aI3
asS'exuberantly'
p305
(lp306
I2
aI2
asS'breadth'
p307
(lp308
I3
aI3
asS'chain'
p309
(lp310
I3
aI3
asS'jarring'
p311
(lp312
I3
aI3
asS'chair'
p313
(lp314
I2
aI2
asS'hole'
p315
(lp316
I3
aI3
asS'uneven'
p317
(lp318
I17
aI17
asS'rousing'
p319
(lp320
I6
aI6
asS'tenacious'
p321
(lp322
I3
aI3
asS'dragonfly'
p323
(lp324
I3
aI3
asS'gloomy'
p325
(lp326
I3
aI3
asS'engrossing'
p327
(lp328
I19
aI19
asS'team'
p329
(lp330
I8
aI8
asS'spiritual'
p331
(lp332
I9
aI9
asS'erotic'
p333
(lp334
I2
aI2
asS'swimfan'
p335
(lp336
I3
aI3
asS'freaky'
p337
(lp338
I2
aI2
asS'unintentionally'
p339
(lp340
I4
aI4
asS'address'
p341
(lp342
I2
aI2
asS'brilliant'
p343
(lp344
I18
aI18
asS'accomplished'
p345
(lp346
I9
aI9
asS'bearable'
p347
(lp348
I2
aI2
asS'love'
p349
(lp350
I138
aI134
asS'griffiths'
p351
(lp352
I2
aI2
asS'marvelous'
p353
(lp354
I7
aI7
asS'film]'
p355
(lp356
I3
aI3
asS'crammed'
p357
(lp358
I2
aI2
asS'angry'
p359
(lp360
I2
aI2
asS'mind numbingly'
p361
(lp362
I4
aI4
asS'filme'
p363
(lp364
I7
aI7
asS'wood'
p365
(lp366
I2
aI2
asS'wondering'
p367
(lp368
I7
aI7
asS'films'
p369
(lp370
I103
aI101
asS'scope'
p371
(lp372
I5
aI5
asS'loving'
p373
(lp374
I5
aI5
asS'afford'
p375
(lp376
I2
aI2
asS'deserved'
p377
(lp378
I4
aI4
asS'pretend'
p379
(lp380
I2
aI2
asS'believer'
p381
(lp382
I2
aI2
asS'believes'
p383
(lp384
I3
aI3
asS'zhao'
p385
(lp386
I2
aI2
asS'stature'
p387
(lp388
I2
aI2
asS'believed'
p389
(lp390
I2
aI2
asS'detached'
p391
(lp392
I6
aI6
asS'savor'
p393
(lp394
I3
aI3
asS'old school'
p395
(lp396
I3
aI3
asS'unforgettable'
p397
(lp398
I2
aI2
asS'explores'
p399
(lp400
I5
aI5
asS'brainless'
p401
(lp402
I2
aI2
asS'natural'
p403
(lp404
I12
aI12
asS'se'
p405
(lp406
I2
aI2
asS'drunken'
p407
(lp408
I2
aI2
asS'innocuous'
p409
(lp410
I3
aI3
asS'years'
p411
(lp412
I61
aI60
asS'episodes'
p413
(lp414
I6
aI6
asS'lackluster'
p415
(lp416
I6
aI6
asS'stupidity'
p417
(lp418
I6
aI6
asS'decades'
p419
(lp420
I12
aI12
asS'retooled'
p421
(lp422
I2
aI2
asS'spectacularly'
p423
(lp424
I3
aI3
asS'smarter'
p425
(lp426
I8
aI8
asS'bowling'
p427
(lp428
I2
aI2
asS'veins'
p429
(lp430
I2
aI2
asS'quarter'
p431
(lp432
I5
aI4
asS'midlife'
p433
(lp434
I3
aI3
asS'beloved'
p435
(lp436
I2
aI2
asS'denouement'
p437
(lp438
I2
aI2
asS'jokes'
p439
(lp440
I29
aI27
asS'downhill'
p441
(lp442
I2
aI2
asS'seriously'
p443
(lp444
I12
aI12
asS'internet'
p445
(lp446
I2
aI2
asS'suggesting'
p447
(lp448
I2
aI2
asS'formula'
p449
(lp450
I26
aI26
asS'plotting'
p451
(lp452
I9
aI9
asS'siege'
p453
(lp454
I2
aI2
asS'intensely'
p455
(lp456
I4
aI4
asS'wrong'
p457
(lp458
I22
aI22
asS'henry'
p459
(lp460
I4
aI4
asS'spanish'
p461
(lp462
I2
aI2
asS'open'
p463
(lp464
I10
aI10
asS'burst'
p465
(lp466
I2
aI2
asS'slasher'
p467
(lp468
I6
aI6
asS'snatch'
p469
(lp470
I2
aI2
asS'ridiculous'
p471
(lp472
I12
aI12
asS'depressed'
p473
(lp474
I2
aI2
asS'#9'
p475
(lp476
I2
aI2
asS'crossroads'
p477
(lp478
I3
aI3
asS'after school'
p479
(lp480
I6
aI6
asS'future'
p481
(lp482
I21
aI21
asS'damned'
p483
(lp484
I10
aI9
asS'san'
p485
(lp486
I2
aI2
asS'sumptuous'
p487
(lp488
I2
aI2
asS'turned'
p489
(lp490
I9
aI9
asS'uniquely'
p491
(lp492
I2
aI2
asS'lurking'
p493
(lp494
I2
aI2
asS'saw'
p495
(lp496
I19
aI19
asS'sanctimonious'
p497
(lp498
I2
aI2
asS'take'
p499
(lp500
I64
aI63
asS'surfaces'
p501
(lp502
I2
aI2
asS'candidly'
p503
(lp504
I2
aI2
asS'small screen'
p505
(lp506
I2
aI2
asS'pages'
p507
(lp508
I2
aI2
asS'butterworth'
p509
(lp510
I2
aI2
asS'lulling'
p511
(lp512
I2
aI2
asS'merit'
p513
(lp514
I5
aI5
asS'aimlessly'
p515
(lp516
I2
aI2
asS'tears'
p517
(lp518
I6
aI6
asS'simplistic'
p519
(lp520
I11
aI11
asS'keenly'
p521
(lp522
I2
aI2
asS'hinges'
p523
(lp524
I2
aI2
asS'vision'
p525
(lp526
I23
aI22
asS'impressions'
p527
(lp528
I3
aI3
asS'intoxicating'
p529
(lp530
I6
aI6
asS'clips'
p531
(lp532
I4
aI4
asS'enlightening'
p533
(lp534
I3
aI3
asS'affecting'
p535
(lp536
I14
aI14
asS'paint by number'
p537
(lp538
I2
aI2
asS'panache'
p539
(lp540
I2
aI2
asS'lagaan'
p541
(lp542
I2
aI2
asS'vertical'
p543
(lp544
I2
aI2
asS'stoppard'
p545
(lp546
I2
aI2
asS'jovial'
p547
(lp548
I2
aI2
asS'spare'
p549
(lp550
I11
aI11
asS'moviemaking'
p551
(lp552
I9
aI9
asS'wickedly'
p553
(lp554
I4
aI4
asS'deliciously'
p555
(lp556
I4
aI4
asS'farcical'
p557
(lp558
I3
aI3
asS'many'
p559
(lp560
I103
aI98
asS'workplace'
p561
(lp562
I2
aI2
asS"can't"
p563
(lp564
I79
aI79
asS'guts'
p565
(lp566
I4
aI4
asS'boat'
p567
(lp568
I3
aI3
asS'stretch'
p569
(lp570
I2
aI2
asS'combined'
p571
(lp572
I5
aI5
asS'reflective'
p573
(lp574
I3
aI3
asS'ethical'
p575
(lp576
I2
aI2
asS'consigned'
p577
(lp578
I2
aI2
asS'former'
p579
(lp580
I4
aI4
asS'isabelle'
p581
(lp582
I2
aI2
asS'single'
p583
(lp584
I14
aI14
asS'aimlessness'
p585
(lp586
I2
aI2
asS'spotlight'
p587
(lp588
I3
aI3
asS'twisty'
p589
(lp590
I2
aI2
asS'engaged'
p591
(lp592
I6
aI6
asS'dubious'
p593
(lp594
I4
aI4
asS'nation'
p595
(lp596
I3
aI3
asS'technology'
p597
(lp598
I6
aI6
asS'threatens'
p599
(lp600
I2
aI2
asS'visually'
p601
(lp602
I21
aI21
asS'cheery'
p603
(lp604
I2
aI2
asS'pacino'
p605
(lp606
I4
aI4
asS'pacing'
p607
(lp608
I16
aI16
asS'bravura'
p609
(lp610
I2
aI2
asS'rip off'
p611
(lp612
I6
aI6
asS'summer'
p613
(lp614
I25
aI25
asS'elysian'
p615
(lp616
I2
aI2
asS'nonjudgmental'
p617
(lp618
I2
aI2
asS'grounded'
p619
(lp620
I3
aI3
asS'aspects'
p621
(lp622
I9
aI8
asS'unerring'
p623
(lp624
I2
aI2
asS'problemas'
p625
(lp626
I2
aI2
asS'dark'
p627
(lp628
I39
aI39
asS'vacuum'
p629
(lp630
I2
aI2
asS'world'
p631
(lp632
I73
aI73
asS'vague'
p633
(lp634
I2
aI2
asS'inexplicably'
p635
(lp636
I3
aI3
asS'two thirds'
p637
(lp638
I2
aI2
asS'travelogue'
p639
(lp640
I3
aI3
asS'thinks'
p641
(lp642
I8
aI8
asS'riveting'
p643
(lp644
I11
aI11
asS'spookiness'
p645
(lp646
I2
aI2
asS'exit'
p647
(lp648
I2
aI2
asS'nicole'
p649
(lp650
I3
aI3
asS'scientific'
p651
(lp652
I2
aI2
asS'power'
p653
(lp654
I38
aI37
asS'intimate'
p655
(lp656
I13
aI13
asS'origins'
p657
(lp658
I2
aI2
asS'slender'
p659
(lp660
I2
aI2
asS'side'
p661
(lp662
I24
aI24
asS'so called'
p663
(lp664
I2
aI2
asS'flawed'
p665
(lp666
I16
aI16
asS'lively'
p667
(lp668
I9
aI9
asS'mindless'
p669
(lp670
I12
aI11
asS'sealed'
p671
(lp672
I2
aI2
asS'weightless'
p673
(lp674
I2
aI2
asS'wheezing'
p675
(lp676
I2
aI2
asS'ago'
p677
(lp678
I18
aI18
asS'complete'
p679
(lp680
I10
aI10
asS'lane'
p681
(lp682
I6
aI6
asS'beginners'
p683
(lp684
I2
aI2
asS'nachtwey'
p685
(lp686
I2
aI2
asS'rage'
p687
(lp688
I3
aI3
asS'tripe'
p689
(lp690
I2
aI2
asS'politically'
p691
(lp692
I3
aI3
asS'detailed'
p693
(lp694
I10
aI10
asS'gone'
p695
(lp696
I19
aI18
asS'ad'
p697
(lp698
I3
aI3
asS'invigorating'
p699
(lp700
I2
aI2
asS'accents'
p701
(lp702
I2
aI2
asS'stealing'
p703
(lp704
I7
aI7
asS'incomprehensible'
p705
(lp706
I3
aI3
asS'nelson'
p707
(lp708
I2
aI2
asS'tv'
p709
(lp710
I28
aI27
asS'norm'
p711
(lp712
I2
aI2
asS'illustrated'
p713
(lp714
I2
aI2
asS'polson'
p715
(lp716
I2
aI2
asS'cable'
p717
(lp718
I4
aI4
asS'pesky'
p719
(lp720
I2
aI2
asS'small'
p721
(lp722
I21
aI21
asS'abbreviated'
p723
(lp724
I2
aI2
asS'abbott'
p725
(lp726
I2
aI2
asS'displays'
p727
(lp728
I2
aI2
asS'offbeat'
p729
(lp730
I6
aI6
asS'revealing'
p731
(lp732
I9
aI9
asS'middle class'
p733
(lp734
I2
aI2
asS'leaping'
p735
(lp736
I3
aI3
asS'thrillers'
p737
(lp738
I6
aI6
asS'melancholic'
p739
(lp740
I2
aI2
asS'vietnamese'
p741
(lp742
I2
aI2
asS'experience'
p743
(lp744
I44
aI44
asS'action'
p745
(lp746
I109
aI108
asS"would've"
p747
(lp748
I2
aI2
asS'sweetness'
p749
(lp750
I3
aI3
asS'vin'
p751
(lp752
I2
aI2
asS'indoors'
p753
(lp754
I2
aI2
asS'pulls'
p755
(lp756
I11
aI11
asS'cynics'
p757
(lp758
I2
aI2
asS'subculture'
p759
(lp760
I2
aI2
asS'gorgeous'
p761
(lp762
I25
aI25
asS'schweig'
p763
(lp764
I2
aI2
asS'company'
p765
(lp766
I11
aI11
asS'lameness'
p767
(lp768
I2
aI2
asS'exposing'
p769
(lp770
I2
aI2
asS'fatal'
p771
(lp772
I9
aI9
asS'beautiful'
p773
(lp774
I33
aI33
asS'bogs'
p775
(lp776
I2
aI2
asS"scott's"
p777
(lp778
I2
aI2
asS'neglected'
p779
(lp780
I2
aI2
asS'accept'
p781
(lp782
I4
aI4
asS'states'
p783
(lp784
I2
aI2
asS'fiercely'
p785
(lp786
I4
aI4
asS'dress'
p787
(lp788
I2
aI2
asS'impulse'
p789
(lp790
I3
aI3
asS'weirdness'
p791
(lp792
I2
aI2
asS'creature'
p793
(lp794
I5
aI5
asS'waves'
p795
(lp796
I3
aI3
asS'ethics'
p797
(lp798
I2
aI2
asS'imagery'
p799
(lp800
I6
aI6
asS'deuces'
p801
(lp802
I5
aI5
asS'leigh'
p803
(lp804
I4
aI4
asS"fincher's"
p805
(lp806
I2
aI2
asS'brim'
p807
(lp808
I2
aI2
asS'broadway'
p809
(lp810
I2
aI2
asS'figuring'
p811
(lp812
I2
aI2
asS'wry'
p813
(lp814
I8
aI8
asS"movie's"
p815
(lp816
I39
aI38
asS'sucked'
p817
(lp818
I4
aI4
asS'always'
p819
(lp820
I35
aI35
asS'events'
p821
(lp822
I14
aI14
asS'shocking'
p823
(lp824
I9
aI9
asS'reactions'
p825
(lp826
I2
aI2
asS'reduce'
p827
(lp828
I2
aI2
asS'fewer'
p829
(lp830
I2
aI2
asS'scribe'
p831
(lp832
I2
aI2
asS'really'
p833
(lp834
I122
aI116
asS'inelegant'
p835
(lp836
I2
aI2
asS'missed'
p837
(lp838
I6
aI6
asS'well edited'
p839
(lp840
I2
aI2
asS'belief'
p841
(lp842
I3
aI3
asS'confidence'
p843
(lp844
I3
aI3
asS'siegel'
p845
(lp846
I2
aI2
asS'imagine'
p847
(lp848
I19
aI19
asS'rises'
p849
(lp850
I8
aI8
asS"jie's"
p851
(lp852
I2
aI2
asS'rooted'
p853
(lp854
I2
aI2
asS'wilder'
p855
(lp856
I6
aI6
asS'guess'
p857
(lp858
I6
aI6
asS'introduction'
p859
(lp860
I2
aI2
asS'swipe'
p861
(lp862
I2
aI2
asS'divertida'
p863
(lp864
I3
aI3
asS'flimsy'
p865
(lp866
I6
aI6
asS'relationship'
p867
(lp868
I16
aI15
asS'theater'
p869
(lp870
I33
aI33
asS'endlessly'
p871
(lp872
I7
aI7
asS'iranian'
p873
(lp874
I7
aI7
asS'bruckheimer'
p875
(lp876
I2
aI2
asS'marriage'
p877
(lp878
I6
aI6
asS'clear eyed'
p879
(lp880
I4
aI4
asS'pedestrian'
p881
(lp882
I4
aI4
asS'sell'
p883
(lp884
I3
aI3
asS'also'
p885
(lp886
I80
aI79
asS'historic'
p887
(lp888
I2
aI2
asS'raucous'
p889
(lp890
I2
aI2
asS'barrel'
p891
(lp892
I4
aI4
asS'dragged'
p893
(lp894
I2
aI2
asS'blended'
p895
(lp896
I2
aI2
asS'self discovery'
p897
(lp898
I3
aI3
asS'indifference'
p899
(lp900
I2
aI2
asS'gracefully'
p901
(lp902
I2
aI2
asS"they'd"
p903
(lp904
I2
aI2
asS'fatale'
p905
(lp906
I3
aI3
asS'sleeve'
p907
(lp908
I2
aI2
asS'pleasures'
p909
(lp910
I12
aI12
asS'kill'
p911
(lp912
I6
aI6
asS'obscure'
p913
(lp914
I6
aI6
asS'weaves'
p915
(lp916
I2
aI2
asS'insane'
p917
(lp918
I2
aI2
asS'delicately'
p919
(lp920
I3
aI3
asS'potent'
p921
(lp922
I7
aI7
asS'knees'
p923
(lp924
I3
aI3
asS'spirits'
p925
(lp926
I6
aI6
asS'unsettling'
p927
(lp928
I17
aI17
asS'movie'
p929
(lp930
I749
aI725
asS'diluted'
p931
(lp932
I2
aI2
asS'compliment'
p933
(lp934
I2
aI2
asS'childlike'
p935
(lp936
I2
aI2
asS'dramatization'
p937
(lp938
I2
aI2
asS'incident'
p939
(lp940
I3
aI3
asS'barely'
p941
(lp942
I18
aI16
asS'rose'
p943
(lp944
I2
aI2
asS'whole'
p945
(lp946
I42
aI42
asS'sink'
p947
(lp948
I6
aI6
asS'load'
p949
(lp950
I2
aI2
asS'leon'
p951
(lp952
I2
aI2
asS'hollow'
p953
(lp954
I6
aI6
asS'worthless'
p955
(lp956
I2
aI2
asS'acceptance'
p957
(lp958
I2
aI2
asS'champion'
p959
(lp960
I3
aI3
asS'sentimentality'
p961
(lp962
I12
aI12
asS'funk'
p963
(lp964
I2
aI2
asS'handling'
p965
(lp966
I2
aI2
asS'coppola'
p967
(lp968
I3
aI3
asS'errol'
p969
(lp970
I2
aI2
asS'straight'
p971
(lp972
I15
aI15
asS'budget'
p973
(lp974
I8
aI8
asS'beautifully'
p975
(lp976
I27
aI27
asS'funny'
p977
(lp978
I161
aI159
asS'spider man'
p979
(lp980
I6
aI6
asS'choking'
p981
(lp982
I2
aI2
asS'elevated'
p983
(lp984
I2
aI2
asS'virtually'
p985
(lp986
I7
aI7
asS'ugliness'
p987
(lp988
I2
aI2
asS'elevates'
p989
(lp990
I2
aI2
asS'forgiveness'
p991
(lp992
I3
aI3
asS'recent'
p993
(lp994
I26
aI26
asS'oddest'
p995
(lp996
I2
aI2
asS'reginald'
p997
(lp998
I2
aI2
asS'loathsome'
p999
(lp1000
I2
aI2
asS'stunt'
p1001
(lp1002
I6
aI6
asS'crackles'
p1003
(lp1004
I2
aI2
asS'eager'
p1005
(lp1006
I4
aI4
asS'surprised'
p1007
(lp1008
I3
aI3
asS'australia'
p1009
(lp1010
I3
aI2
asS'wives'
p1011
(lp1012
I2
aI2
asS'emergence'
p1013
(lp1014
I2
aI2
asS'pertinent'
p1015
(lp1016
I2
aI2
asS'd'
p1017
(lp1018
I3
aI3
asS'marquee'
p1019
(lp1020
I2
aI2
asS'curious'
p1021
(lp1022
I2
aI2
asS'irresistible'
p1023
(lp1024
I5
aI5
asS'twinkle'
p1025
(lp1026
I2
aI2
asS'fast paced'
p1027
(lp1028
I2
aI2
asS"son's"
p1029
(lp1030
I3
aI3
asS'idealistic'
p1031
(lp1032
I2
aI2
asS'feelings'
p1033
(lp1034
I2
aI2
asS'clancy'
p1035
(lp1036
I2
aI2
asS'tidal'
p1037
(lp1038
I2
aI2
asS'wildlife'
p1039
(lp1040
I2
aI2
asS'anything'
p1041
(lp1042
I48
aI47
asS'unintentional'
p1043
(lp1044
I8
aI8
asS'recommended'
p1045
(lp1046
I2
aI2
asS'garbage'
p1047
(lp1048
I5
aI5
asS'next'
p1049
(lp1050
I31
aI29
asS'unnerving'
p1051
(lp1052
I4
aI4
asS'suit'
p1053
(lp1054
I2
aI2
asS'elsewhere'
p1055
(lp1056
I4
aI4
asS'relaxed'
p1057
(lp1058
I2
aI2
asS'line'
p1059
(lp1060
I28
aI28
asS'doo'
p1061
(lp1062
I2
aI2
asS'humorless'
p1063
(lp1064
I5
aI5
asS'us'
p1065
(lp1066
I136
aI129
asS'maturity'
p1067
(lp1068
I2
aI2
asS'oddity'
p1069
(lp1070
I2
aI2
asS'chan'
p1071
(lp1072
I8
aI7
asS'diverse'
p1073
(lp1074
I3
aI3
asS'lived in'
p1075
(lp1076
I2
aI2
asS'defines'
p1077
(lp1078
I3
aI2
asS'puzzling'
p1079
(lp1080
I2
aI2
asS'conceptions'
p1081
(lp1082
I2
aI2
asS"actors'"
p1083
(lp1084
I3
aI3
asS'tucker'
p1085
(lp1086
I2
aI2
asS'tedium'
p1087
(lp1088
I2
aI2
asS'elements'
p1089
(lp1090
I17
aI17
asS'sides'
p1091
(lp1092
I11
aI11
asS'walken'
p1093
(lp1094
I2
aI2
asS'menace'
p1095
(lp1096
I8
aI8
asS'scratch'
p1097
(lp1098
I6
aI4
asS'enjoyable'
p1099
(lp1100
I39
aI38
asS'prim'
p1101
(lp1102
I2
aI2
asS'screwed up'
p1103
(lp1104
I2
aI2
asS'send'
p1105
(lp1106
I6
aI6
asS'cheapo'
p1107
(lp1108
I2
aI2
asS"benigni's"
p1109
(lp1110
I5
aI5
asS'timely'
p1111
(lp1112
I8
aI8
asS'magic'
p1113
(lp1114
I19
aI19
asS'try'
p1115
(lp1116
I13
aI13
asS'trite'
p1117
(lp1118
I7
aI7
asS'video'
p1119
(lp1120
I33
aI33
asS'danger'
p1121
(lp1122
I3
aI3
asS'consistently'
p1123
(lp1124
I9
aI8
asS'indian'
p1125
(lp1126
I5
aI5
asS'crowd pleasing'
p1127
(lp1128
I2
aI2
asS'equivalent'
p1129
(lp1130
I12
aI12
asS'scenery'
p1131
(lp1132
I6
aI6
asS'led'
p1133
(lp1134
I2
aI2
asS'delivering'
p1135
(lp1136
I8
aI8
asS'let'
p1137
(lp1138
I12
aI12
asS'great'
p1139
(lp1140
I89
aI86
asS'popcorn'
p1141
(lp1142
I12
aI12
asS'makes'
p1143
(lp1144
I154
aI153
asS'innocence'
p1145
(lp1146
I8
aI7
asS'fitfully'
p1147
(lp1148
I3
aI3
asS'disarming'
p1149
(lp1150
I2
aI2
asS"latter's"
p1151
(lp1152
I2
aI2
asS'thin'
p1153
(lp1154
I22
aI22
asS'paints'
p1155
(lp1156
I2
aI2
asS'slim'
p1157
(lp1158
I3
aI3
asS'depiction'
p1159
(lp1160
I7
aI7
asS"twohy's"
p1161
(lp1162
I2
aI2
asS'animal'
p1163
(lp1164
I8
aI8
asS'constraints'
p1165
(lp1166
I2
aI2
asS'intelligent'
p1167
(lp1168
I35
aI35
asS'big screen'
p1169
(lp1170
I6
aI6
asS'demonstrating'
p1171
(lp1172
I2
aI2
asS'hawk'
p1173
(lp1174
I2
aI2
asS'realized'
p1175
(lp1176
I7
aI7
asS'undernourished'
p1177
(lp1178
I3
aI3
asS'classy'
p1179
(lp1180
I2
aI2
asS'art house'
p1181
(lp1182
I2
aI2
asS'boxing'
p1183
(lp1184
I2
aI2
asS'reversal'
p1185
(lp1186
I2
aI2
asS'producer'
p1187
(lp1188
I3
aI3
asS'opera ish'
p1189
(lp1190
I2
aI2
asS'warren'
p1191
(lp1192
I2
aI2
asS'perfect'
p1193
(lp1194
I24
aI24
asS'tambi\xe9n'
p1195
(lp1196
I2
aI2
asS'recreating'
p1197
(lp1198
I2
aI2
asS'archival'
p1199
(lp1200
I2
aI2
asS'mediocre'
p1201
(lp1202
I16
aI16
asS'snake'
p1203
(lp1204
I2
aI2
asS'pompous'
p1205
(lp1206
I2
aI2
asS'delightful'
p1207
(lp1208
I17
aI17
asS'betty'
p1209
(lp1210
I4
aI4
asS'beneath'
p1211
(lp1212
I12
aI12
asS'traces'
p1213
(lp1214
I2
aI2
asS'enigmatic'
p1215
(lp1216
I3
aI3
asS'jagger'
p1217
(lp1218
I6
aI6
asS'boorishness'
p1219
(lp1220
I2
aI2
asS'banal'
p1221
(lp1222
I4
aI4
asS'tenth'
p1223
(lp1224
I2
aI2
asS'wander'
p1225
(lp1226
I2
aI2
asS'superbly'
p1227
(lp1228
I2
aI2
asS'sever'
p1229
(lp1230
I2
aI2
asS'hilarious'
p1231
(lp1232
I25
aI25
asS'paper thin'
p1233
(lp1234
I4
aI4
asS'unwieldy'
p1235
(lp1236
I2
aI2
asS'surely'
p1237
(lp1238
I6
aI6
asS'disintegrating'
p1239
(lp1240
I2
aI2
asS'scary'
p1241
(lp1242
I21
aI21
asS'dubbed'
p1243
(lp1244
I4
aI4
asS'could'
p1245
(lp1246
I109
aI105
asS'chilly'
p1247
(lp1248
I9
aI9
asS'serenity'
p1249
(lp1250
I2
aI2
asS'scene'
p1251
(lp1252
I23
aI22
asS'owned'
p1253
(lp1254
I2
aI2
asS'jesus'
p1255
(lp1256
I2
aI2
asS"wallace's"
p1257
(lp1258
I2
aI2
asS'ties'
p1259
(lp1260
I3
aI3
asS'exhilarating'
p1261
(lp1262
I9
aI9
asS'low'
p1263
(lp1264
I22
aI20
asS'lot'
p1265
(lp1266
I59
aI57
asS'ragbag'
p1267
(lp1268
I2
aI2
asS'depressing'
p1269
(lp1270
I16
aI15
asS'unexpectedly'
p1271
(lp1272
I2
aI2
asS'bother'
p1273
(lp1274
I2
aI2
asS'ingenious'
p1275
(lp1276
I7
aI7
asS'viewer'
p1277
(lp1278
I21
aI21
asS'gently'
p1279
(lp1280
I5
aI5
asS'reassuring'
p1281
(lp1282
I2
aI2
asS'gentle'
p1283
(lp1284
I12
aI12
asS'relic'
p1285
(lp1286
I2
aI2
asS'hammer'
p1287
(lp1288
I2
aI2
asS'lilo'
p1289
(lp1290
I3
aI3
asS'hangover'
p1291
(lp1292
I2
aI2
asS'korean'
p1293
(lp1294
I5
aI5
asS'latino'
p1295
(lp1296
I2
aI2
asS'soap'
p1297
(lp1298
I19
aI19
asS'sophomoric'
p1299
(lp1300
I6
aI6
asS'segment'
p1301
(lp1302
I2
aI2
asS'ignites'
p1303
(lp1304
I2
aI2
asS'quick cut'
p1305
(lp1306
I2
aI2
asS'face'
p1307
(lp1308
I29
aI27
asS'deadpan'
p1309
(lp1310
I6
aI6
asS'mechanical'
p1311
(lp1312
I4
aI4
asS'maddeningly'
p1313
(lp1314
I2
aI2
asS'fact'
p1315
(lp1316
I28
aI27
asS'bring'
p1317
(lp1318
I15
aI15
asS'rouge'
p1319
(lp1320
I3
aI3
asS'decade'
p1321
(lp1322
I3
aI3
asS'taps'
p1323
(lp1324
I3
aI3
asS'jay'
p1325
(lp1326
I4
aI4
asS'meant'
p1327
(lp1328
I5
aI5
asS'auto pilot'
p1329
(lp1330
I2
aI2
asS'handle'
p1331
(lp1332
I5
aI5
asS'disappointingly'
p1333
(lp1334
I5
aI5
asS'lucky'
p1335
(lp1336
I2
aI2
asS'conceptual'
p1337
(lp1338
I2
aI2
asS'familial'
p1339
(lp1340
I5
aI5
asS'contriving'
p1341
(lp1342
I2
aI2
asS'benigni'
p1343
(lp1344
I6
aI6
asS'insulting'
p1345
(lp1346
I5
aI4
asS'ends'
p1347
(lp1348
I29
aI29
asS'explosive'
p1349
(lp1350
I2
aI2
asS'benjamins'
p1351
(lp1352
I2
aI2
asS'thornberrys'
p1353
(lp1354
I4
aI4
asS'witless'
p1355
(lp1356
I8
aI8
asS'staring'
p1357
(lp1358
I2
aI2
asS'drum'
p1359
(lp1360
I3
aI3
asS'unflinching'
p1361
(lp1362
I6
aI6
asS'etc'
p1363
(lp1364
I3
aI3
asS'stylistically'
p1365
(lp1366
I2
aI2
asS'crafted'
p1367
(lp1368
I11
aI11
asS'cq'
p1369
(lp1370
I2
aI2
asS'dazzling'
p1371
(lp1372
I11
aI11
asS'blatant'
p1373
(lp1374
I2
aI2
asS'waste'
p1375
(lp1376
I13
aI13
asS'pretentious'
p1377
(lp1378
I24
aI24
asS'expiration'
p1379
(lp1380
I2
aI2
asS'bathtub'
p1381
(lp1382
I2
aI2
asS'surprisingly'
p1383
(lp1384
I41
aI41
asS'hardware'
p1385
(lp1386
I2
aI2
asS'optimistic'
p1387
(lp1388
I3
aI3
asS'tenor'
p1389
(lp1390
I3
aI3
asS'tattoo'
p1391
(lp1392
I2
aI2
asS'russell'
p1393
(lp1394
I2
aI2
asS'tupac'
p1395
(lp1396
I2
aI2
asS'spends'
p1397
(lp1398
I3
aI3
asS'glaring'
p1399
(lp1400
I2
aI2
asS'unimaginable'
p1401
(lp1402
I2
aI2
asS'[shyamalan]'
p1403
(lp1404
I2
aI2
asS'identity'
p1405
(lp1406
I16
aI16
asS'colour'
p1407
(lp1408
I2
aI2
asS'less'
p1409
(lp1410
I73
aI69
asS'glum'
p1411
(lp1412
I2
aI2
asS'web'
p1413
(lp1414
I5
aI5
asS'combine'
p1415
(lp1416
I2
aI2
asS'unengaging'
p1417
(lp1418
I2
aI2
asS'vain'
p1419
(lp1420
I2
aI2
asS'passably'
p1421
(lp1422
I3
aI3
asS'become'
p1423
(lp1424
I33
aI32
asS'farrelly'
p1425
(lp1426
I5
aI5
asS'crudely'
p1427
(lp1428
I2
aI2
asS'disbelief'
p1429
(lp1430
I6
aI5
asS'literally'
p1431
(lp1432
I8
aI8
asS'humorous'
p1433
(lp1434
I10
aI10
asS'grown up'
p1435
(lp1436
I4
aI4
asS'blurry'
p1437
(lp1438
I2
aI2
asS'gunplay'
p1439
(lp1440
I2
aI2
asS'gained'
p1441
(lp1442
I3
aI3
asS'sister'
p1443
(lp1444
I3
aI3
asS'drumming'
p1445
(lp1446
I2
aI2
asS'puts'
p1447
(lp1448
I14
aI14
asS'seeds'
p1449
(lp1450
I3
aI3
asS'clooney'
p1451
(lp1452
I6
aI6
asS'documentary'
p1453
(lp1454
I71
aI71
asS"wiseman's"
p1455
(lp1456
I2
aI2
asS'suited'
p1457
(lp1458
I3
aI3
asS'flailing'
p1459
(lp1460
I3
aI3
asS'tiny'
p1461
(lp1462
I4
aI4
asS'mere'
p1463
(lp1464
I4
aI4
asS'housing'
p1465
(lp1466
I2
aI2
asS'pairing'
p1467
(lp1468
I2
aI2
asS'kooky'
p1469
(lp1470
I2
aI2
asS"bennett's"
p1471
(lp1472
I2
aI2
asS'frustration'
p1473
(lp1474
I2
aI2
asS'delivers'
p1475
(lp1476
I34
aI34
asS'count'
p1477
(lp1478
I9
aI9
asS'smooth'
p1479
(lp1480
I5
aI5
asS'monument'
p1481
(lp1482
I2
aI2
asS'thirteen'
p1483
(lp1484
I3
aI3
asS'jagged'
p1485
(lp1486
I2
aI2
asS"queen's"
p1487
(lp1488
I3
aI3
asS'diggs'
p1489
(lp1490
I2
aI2
asS'seus'
p1491
(lp1492
I2
aI2
asS'monday'
p1493
(lp1494
I2
aI2
asS'chance'
p1495
(lp1496
I7
aI7
asS'ghost'
p1497
(lp1498
I7
aI7
asS"cox's"
p1499
(lp1500
I2
aI2
asS'magnetic'
p1501
(lp1502
I3
aI3
asS'maid'
p1503
(lp1504
I2
aI2
asS'controversial'
p1505
(lp1506
I3
aI3
asS'integrity'
p1507
(lp1508
I7
aI7
asS'stinks'
p1509
(lp1510
I2
aI2
asS'same sex'
p1511
(lp1512
I2
aI2
asS'slowest'
p1513
(lp1514
I2
aI2
asS'worth'
p1515
(lp1516
I59
aI58
asS'waterlogged'
p1517
(lp1518
I2
aI2
asS"isn't"
p1519
(lp1520
I92
aI89
asS'relentlessly'
p1521
(lp1522
I6
aI6
asS'overview'
p1523
(lp1524
I2
aI2
asS'triumph'
p1525
(lp1526
I9
aI9
asS'phones'
p1527
(lp1528
I2
aI2
asS'aristocrat'
p1529
(lp1530
I2
aI2
asS'machines'
p1531
(lp1532
I2
aI2
asS'jessica'
p1533
(lp1534
I3
aI3
asS'fessenden'
p1535
(lp1536
I2
aI2
asS'near'
p1537
(lp1538
I6
aI6
asS'establishes'
p1539
(lp1540
I3
aI3
asS'connected'
p1541
(lp1542
I2
aI2
asS'sinks'
p1543
(lp1544
I5
aI5
asS'admirers'
p1545
(lp1546
I2
aI2
asS'pluto'
p1547
(lp1548
I2
aI2
asS'study'
p1549
(lp1550
I31
aI31
asS'approaches'
p1551
(lp1552
I3
aI3
asS"majidi's"
p1553
(lp1554
I2
aI2
asS'spooky'
p1555
(lp1556
I8
aI8
asS'highly'
p1557
(lp1558
I20
aI20
asS'total'
p1559
(lp1560
I3
aI3
asS'experimentation'
p1561
(lp1562
I2
aI2
asS'plot'
p1563
(lp1564
I104
aI104
asS'palestinian'
p1565
(lp1566
I2
aI2
asS'program'
p1567
(lp1568
I2
aI2
asS'aware'
p1569
(lp1570
I3
aI3
asS'escapist'
p1571
(lp1572
I5
aI5
asS'sobering'
p1573
(lp1574
I5
aI5
asS'striving'
p1575
(lp1576
I2
aI2
asS'wore'
p1577
(lp1578
I2
aI2
asS'permits'
p1579
(lp1580
I2
aI2
asS'1999'
p1581
(lp1582
I2
aI2
asS'work'
p1583
(lp1584
I146
aI141
asS'refusing'
p1585
(lp1586
I2
aI2
asS'worn'
p1587
(lp1588
I3
aI3
asS'theories'
p1589
(lp1590
I2
aI2
asS'walsh'
p1591
(lp1592
I2
aI2
asS'indifferent'
p1593
(lp1594
I2
aI2
asS'recovery'
p1595
(lp1596
I2
aI2
asS'farce'
p1597
(lp1598
I7
aI7
asS'morbid'
p1599
(lp1600
I3
aI3
asS'operatic'
p1601
(lp1602
I2
aI2
asS'gamble'
p1603
(lp1604
I2
aI2
asS'ladder'
p1605
(lp1606
I2
aI2
asS'lay'
p1607
(lp1608
I3
aI3
asS'outbursts'
p1609
(lp1610
I2
aI2
asS'schneider'
p1611
(lp1612
I4
aI4
asS'fan'
p1613
(lp1614
I14
aI14
asS'greed'
p1615
(lp1616
I2
aI2
asS'jabs'
p1617
(lp1618
I2
aI2
asS'satisfied'
p1619
(lp1620
I2
aI2
asS'awful'
p1621
(lp1622
I18
aI17
asS'satisfies'
p1623
(lp1624
I2
aI2
asS'adolescence'
p1625
(lp1626
I2
aI2
asS'somewhere'
p1627
(lp1628
I14
aI14
asS'potentially'
p1629
(lp1630
I12
aI12
asS'eventually'
p1631
(lp1632
I12
aI12
asS'collide'
p1633
(lp1634
I2
aI2
asS'rocks'
p1635
(lp1636
I2
aI2
asS"smith's"
p1637
(lp1638
I2
aI2
asS'network'
p1639
(lp1640
I4
aI4
asS'daniel'
p1641
(lp1642
I4
aI4
asS'forth'
p1643
(lp1644
I7
aI7
asS'sleep inducing'
p1645
(lp1646
I2
aI2
asS'nebrida'
p1647
(lp1648
I2
aI2
asS'creates'
p1649
(lp1650
I11
aI11
asS'lousy'
p1651
(lp1652
I7
aI7
asS'light hearted'
p1653
(lp1654
I2
aI2
asS'another'
p1655
(lp1656
I81
aI79
asS'mojo'
p1657
(lp1658
I2
aI2
asS'john'
p1659
(lp1660
I36
aI36
asS'dogs'
p1661
(lp1662
I6
aI5
asS'happily'
p1663
(lp1664
I5
aI5
asS'rejected'
p1665
(lp1666
I3
aI3
asS'wastes'
p1667
(lp1668
I3
aI3
asS'wasted'
p1669
(lp1670
I8
aI8
asS'manner'
p1671
(lp1672
I15
aI15
asS'refreshingly'
p1673
(lp1674
I11
aI11
asS"bartleby's"
p1675
(lp1676
I2
aI2
asS'forced'
p1677
(lp1678
I15
aI15
asS'shorts'
p1679
(lp1680
I2
aI2
asS'subjects'
p1681
(lp1682
I8
aI8
asS'newcomers'
p1683
(lp1684
I2
aI2
asS'fussy'
p1685
(lp1686
I2
aI2
asS'subtly'
p1687
(lp1688
I5
aI5
asS'dopey'
p1689
(lp1690
I3
aI3
asS'subtle'
p1691
(lp1692
I17
aI17
asS'screening'
p1693
(lp1694
I4
aI4
asS'adequate'
p1695
(lp1696
I2
aI2
asS'de'
p1697
(lp1698
I58
aI50
asS'dv'
p1699
(lp1700
I2
aI2
asS"children's"
p1701
(lp1702
I10
aI10
asS'wannabe'
p1703
(lp1704
I4
aI4
asS'secretary'
p1705
(lp1706
I6
aI6
asS'fullness'
p1707
(lp1708
I2
aI2
asS'prosaic'
p1709
(lp1710
I2
aI2
asS"hopkins'"
p1711
(lp1712
I2
aI2
asS'miserable'
p1713
(lp1714
I5
aI5
asS'draws'
p1715
(lp1716
I6
aI6
asS'appealing'
p1717
(lp1718
I22
aI22
asS'bien'
p1719
(lp1720
I2
aI2
asS'unable'
p1721
(lp1722
I3
aI3
asS'multi character'
p1723
(lp1724
I2
aI2
asS'terms'
p1725
(lp1726
I15
aI15
asS'handful'
p1727
(lp1728
I4
aI4
asS'unfold'
p1729
(lp1730
I2
aI2
asS'essentially'
p1731
(lp1732
I11
aI11
asS'tone'
p1733
(lp1734
I30
aI30
asS'roller coaster'
p1735
(lp1736
I2
aI2
asS'layers'
p1737
(lp1738
I3
aI3
asS'stillborn'
p1739
(lp1740
I3
aI3
asS'dozens'
p1741
(lp1742
I2
aI2
asS'warmth'
p1743
(lp1744
I12
aI12
asS'ichi'
p1745
(lp1746
I2
aI2
asS'coherent'
p1747
(lp1748
I7
aI7
asS'information'
p1749
(lp1750
I2
aI2
asS'abrupt'
p1751
(lp1752
I2
aI2
asS'applies'
p1753
(lp1754
I2
aI2
asS'mistake'
p1755
(lp1756
I10
aI10
asS'whine'
p1757
(lp1758
I2
aI2
asS'extremes'
p1759
(lp1760
I2
aI2
asS'indictment'
p1761
(lp1762
I3
aI3
asS'confection'
p1763
(lp1764
I2
aI2
asS'traffics'
p1765
(lp1766
I2
aI2
asS'fuss'
p1767
(lp1768
I2
aI2
asS'quentin'
p1769
(lp1770
I2
aI2
asS'documents'
p1771
(lp1772
I2
aI2
asS'producers'
p1773
(lp1774
I5
aI5
asS'redneck'
p1775
(lp1776
I2
aI2
asS'1975'
p1777
(lp1778
I2
aI2
asS'campy'
p1779
(lp1780
I5
aI5
asS'musical'
p1781
(lp1782
I15
aI15
asS'athletic'
p1783
(lp1784
I2
aI2
asS'adding'
p1785
(lp1786
I3
aI3
asS'hills'
p1787
(lp1788
I2
aI2
asS'retread'
p1789
(lp1790
I8
aI8
asS'seductive'
p1791
(lp1792
I4
aI4
asS'invaluable'
p1793
(lp1794
I3
aI3
asS'towards'
p1795
(lp1796
I2
aI2
asS'portuguese'
p1797
(lp1798
I2
aI2
asS'sends'
p1799
(lp1800
I2
aI2
asS'bore'
p1801
(lp1802
I7
aI7
asS'confusing'
p1803
(lp1804
I6
aI6
asS'adorably'
p1805
(lp1806
I2
aI2
asS'filming'
p1807
(lp1808
I2
aI2
asS'beating'
p1809
(lp1810
I2
aI2
asS'peek'
p1811
(lp1812
I7
aI6
asS'graduated'
p1813
(lp1814
I2
aI2
asS'wonders'
p1815
(lp1816
I3
aI3
asS'anime'
p1817
(lp1818
I5
aI5
asS'float'
p1819
(lp1820
I2
aI2
asS'balances'
p1821
(lp1822
I3
aI3
asS'balanced'
p1823
(lp1824
I6
aI6
asS'overblown'
p1825
(lp1826
I5
aI5
asS'way'
p1827
(lp1828
I171
aI168
asS'war'
p1829
(lp1830
I38
aI37
asS'vitality'
p1831
(lp1832
I5
aI5
asS'mysterious'
p1833
(lp1834
I7
aI7
asS'true'
p1835
(lp1836
I44
aI44
asS'absent'
p1837
(lp1838
I2
aI2
asS'theorizing'
p1839
(lp1840
I2
aI2
asS'wintry'
p1841
(lp1842
I2
aI2
asS'physical'
p1843
(lp1844
I6
aI6
asS'test'
p1845
(lp1846
I8
aI8
asS'heyday'
p1847
(lp1848
I2
aI2
asS'welcome'
p1849
(lp1850
I16
aI16
asS'improvisation'
p1851
(lp1852
I2
aI2
asS"let's"
p1853
(lp1854
I3
aI3
asS'musty'
p1855
(lp1856
I2
aI2
asS'under inspired'
p1857
(lp1858
I2
aI2
asS'concept'
p1859
(lp1860
I20
aI19
asS'battle'
p1861
(lp1862
I10
aI10
asS'hinton'
p1863
(lp1864
I2
aI2
asS'idealism'
p1865
(lp1866
I3
aI3
asS'compensate'
p1867
(lp1868
I2
aI2
asS'self congratulatory'
p1869
(lp1870
I2
aI2
asS'seemingly'
p1871
(lp1872
I7
aI7
asS'feeble'
p1873
(lp1874
I2
aI2
asS'turns'
p1875
(lp1876
I33
aI33
asS'gum'
p1877
(lp1878
I2
aI2
asS'q'
p1879
(lp1880
I3
aI3
asS'gut'
p1881
(lp1882
I2
aI2
asS'guy'
p1883
(lp1884
I16
aI16
asS'woven'
p1885
(lp1886
I3
aI3
asS"reyes'"
p1887
(lp1888
I2
aI2
asS'repetitive'
p1889
(lp1890
I12
aI12
asS'cost'
p1891
(lp1892
I2
aI2
asS'substitutes'
p1893
(lp1894
I2
aI2
asS"thing's"
p1895
(lp1896
I3
aI3
asS"haynes'"
p1897
(lp1898
I3
aI2
asS'shared'
p1899
(lp1900
I3
aI3
asS'collateral'
p1901
(lp1902
I8
aI8
asS'unsure'
p1903
(lp1904
I2
aI2
asS'teacher'
p1905
(lp1906
I6
aI6
asS'igby'
p1907
(lp1908
I3
aI3
asS'defensive'
p1909
(lp1910
I2
aI2
asS'extra'
p1911
(lp1912
I3
aI3
asS'wonderfully'
p1913
(lp1914
I10
aI10
asS'schlock'
p1915
(lp1916
I2
aI2
asS'eccentrics'
p1917
(lp1918
I2
aI2
asS'angels'
p1919
(lp1920
I3
aI2
asS'clue'
p1921
(lp1922
I5
aI5
asS'fingered'
p1923
(lp1924
I4
aI4
asS'car'
p1925
(lp1926
I13
aI12
asS'cat'
p1927
(lp1928
I4
aI4
asS'meow'
p1929
(lp1930
I2
aI2
asS'metal'
p1931
(lp1932
I3
aI3
asS'stimulating'
p1933
(lp1934
I2
aI2
asS'cad'
p1935
(lp1936
I2
aI2
asS'heart'
p1937
(lp1938
I56
aI56
asS'hears'
p1939
(lp1940
I2
aI2
asS"didn't"
p1941
(lp1942
I25
aI25
asS'repackaged'
p1943
(lp1944
I2
aI2
asS'occur'
p1945
(lp1946
I2
aI2
asS'bankrupt'
p1947
(lp1948
I2
aI2
asS'fortunately'
p1949
(lp1950
I2
aI2
asS'discussion'
p1951
(lp1952
I3
aI3
asS'means'
p1953
(lp1954
I12
aI12
asS'cliche'
p1955
(lp1956
I9
aI9
asS'write'
p1957
(lp1958
I2
aI2
asS'nowhere'
p1959
(lp1960
I10
aI10
asS'gaping'
p1961
(lp1962
I2
aI2
asS'product'
p1963
(lp1964
I6
aI6
asS'sacrifice'
p1965
(lp1966
I5
aI5
asS'produce'
p1967
(lp1968
I7
aI7
asS'good natured'
p1969
(lp1970
I4
aI4
asS'dahmer'
p1971
(lp1972
I6
aI6
asS'playful'
p1973
(lp1974
I7
aI7
asS'cold'
p1975
(lp1976
I27
aI27
asS'still'
p1977
(lp1978
I105
aI104
asS'hampered'
p1979
(lp1980
I4
aI4
asS'dreadfully'
p1981
(lp1982
I2
aI2
asS'disparate'
p1983
(lp1984
I2
aI2
asS'adrenaline'
p1985
(lp1986
I2
aI2
asS'half'
p1987
(lp1988
I33
aI33
asS'nor'
p1989
(lp1990
I23
aI23
asS'undermining'
p1991
(lp1992
I2
aI2
asS'chuckles'
p1993
(lp1994
I3
aI3
asS'outrageously'
p1995
(lp1996
I2
aI2
asS'significantly'
p1997
(lp1998
I2
aI2
asS'ed'
p1999
(lp2000
I3
aI3
asS'challenges'
p2001
(lp2002
I2
aI2
asS'year'
p2003
(lp2004
I54
aI53
asS'shown'
p2005
(lp2006
I2
aI2
asS'digressions'
p2007
(lp2008
I2
aI2
asS'irony'
p2009
(lp2010
I4
aI4
asS'thirst'
p2011
(lp2012
I3
aI3
asS'hastily'
p2013
(lp2014
I5
aI5
asS'shows'
p2015
(lp2016
I24
aI23
asS'screenwriters'
p2017
(lp2018
I7
aI7
asS'rebel'
p2019
(lp2020
I2
aI2
asS'excesses'
p2021
(lp2022
I3
aI3
asS'contemplation'
p2023
(lp2024
I2
aI2
asS'honest'
p2025
(lp2026
I19
aI19
asS"lookin'"
p2027
(lp2028
I2
aI2
asS'invitation'
p2029
(lp2030
I2
aI2
asS'support'
p2031
(lp2032
I4
aI4
asS'striking'
p2033
(lp2034
I12
aI12
asS'gasp'
p2035
(lp2036
I2
aI2
asS'oedekerk'
p2037
(lp2038
I2
aI2
asS'size'
p2039
(lp2040
I3
aI3
asS'remotely'
p2041
(lp2042
I6
aI6
asS'first class'
p2043
(lp2044
I3
aI3
asS'margaritas'
p2045
(lp2046
I2
aI2
asS'appreciates'
p2047
(lp2048
I2
aI2
asS'television'
p2049
(lp2050
I15
aI15
asS'optimism'
p2051
(lp2052
I3
aI3
asS'heavy handed'
p2053
(lp2054
I12
aI12
asS'angel'
p2055
(lp2056
I3
aI3
asS"assayas'"
p2057
(lp2058
I2
aI2
asS'nuanced'
p2059
(lp2060
I8
aI8
asS'veteran'
p2061
(lp2062
I2
aI2
asS'terrific'
p2063
(lp2064
I31
aI31
asS'nuances'
p2065
(lp2066
I5
aI5
asS'begin'
p2067
(lp2068
I4
aI4
asS'price'
p2069
(lp2070
I8
aI8
asS'neatly'
p2071
(lp2072
I2
aI2
asS"showtime's"
p2073
(lp2074
I2
aI2
asS'america'
p2075
(lp2076
I9
aI9
asS']'
p2077
(lp2078
I3
aI3
asS'feminine'
p2079
(lp2080
I2
aI2
asS'egg'
p2081
(lp2082
I2
aI2
asS'hurley'
p2083
(lp2084
I3
aI3
asS'steady'
p2085
(lp2086
I3
aI3
asS'sunset'
p2087
(lp2088
I2
aI2
asS'typically'
p2089
(lp2090
I2
aI2
asS'motown'
p2091
(lp2092
I3
aI3
asS'tearjerker'
p2093
(lp2094
I3
aI3
asS'title'
p2095
(lp2096
I41
aI41
asS'jolt'
p2097
(lp2098
I3
aI3
asS"scorsese's"
p2099
(lp2100
I3
aI3
asS'ensues'
p2101
(lp2102
I2
aI2
asS'losers'
p2103
(lp2104
I2
aI2
asS"everything's"
p2105
(lp2106
I2
aI2
asS'physically'
p2107
(lp2108
I2
aI2
asS'staged'
p2109
(lp2110
I4
aI4
asS'anchored'
p2111
(lp2112
I4
aI4
asS'concern'
p2113
(lp2114
I7
aI7
asS'suspects'
p2115
(lp2116
I2
aI2
asS'movie making'
p2117
(lp2118
I2
aI2
asS'fascinates'
p2119
(lp2120
I3
aI3
asS'hurts'
p2121
(lp2122
I2
aI2
asS'propaganda'
p2123
(lp2124
I6
aI6
asS'larger than life'
p2125
(lp2126
I2
aI2
asS'comes'
p2127
(lp2128
I64
aI64
asS'sulky'
p2129
(lp2130
I2
aI2
asS'oliver'
p2131
(lp2132
I4
aI4
asS'wonderful'
p2133
(lp2134
I18
aI18
asS"where's"
p2135
(lp2136
I2
aI2
asS"dawson's"
p2137
(lp2138
I2
aI2
asS'wounds'
p2139
(lp2140
I2
aI2
asS'figured'
p2141
(lp2142
I3
aI3
asS'countless'
p2143
(lp2144
I2
aI2
asS'developing'
p2145
(lp2146
I2
aI2
asS'buen'
p2147
(lp2148
I2
aI2
asS'embrace'
p2149
(lp2150
I3
aI3
asS'develop'
p2151
(lp2152
I2
aI2
asS'intelligently'
p2153
(lp2154
I2
aI2
asS'centuries'
p2155
(lp2156
I2
aI2
asS"rock's"
p2157
(lp2158
I2
aI2
asS'enchanting'
p2159
(lp2160
I2
aI2
asS"[allen's]"
p2161
(lp2162
I2
aI2
asS'breezy'
p2163
(lp2164
I6
aI6
asS'glorious'
p2165
(lp2166
I4
aI4
asS'generally'
p2167
(lp2168
I12
aI12
asS'coming of age'
p2169
(lp2170
I27
aI27
asS'touch'
p2171
(lp2172
I12
aI12
asS'improvement'
p2173
(lp2174
I2
aI2
asS'watchable'
p2175
(lp2176
I11
aI11
asS'role'
p2177
(lp2178
I22
aI21
asS'read'
p2179
(lp2180
I20
aI20
asS'gonna'
p2181
(lp2182
I2
aI2
asS'execution'
p2183
(lp2184
I13
aI13
asS'lady'
p2185
(lp2186
I6
aI6
asS"barney's"
p2187
(lp2188
I2
aI2
asS'fortune'
p2189
(lp2190
I3
aI3
asS'postcard'
p2191
(lp2192
I3
aI3
asS"'s"
p2193
(lp2194
I2
aI2
asS'passions'
p2195
(lp2196
I4
aI4
asS'blackboards'
p2197
(lp2198
I2
aI2
asS'barris'
p2199
(lp2200
I2
aI2
asS'strained'
p2201
(lp2202
I4
aI4
asS'fondness'
p2203
(lp2204
I2
aI2
asS'comparison'
p2205
(lp2206
I8
aI8
asS'central'
p2207
(lp2208
I7
aI7
asS'boldly'
p2209
(lp2210
I3
aI3
asS'mugging'
p2211
(lp2212
I2
aI2
asS'greatly'
p2213
(lp2214
I3
aI3
asS'processor'
p2215
(lp2216
I2
aI2
asS'daringly'
p2217
(lp2218
I2
aI2
asS'involvement'
p2219
(lp2220
I2
aI2
asS'overtly'
p2221
(lp2222
I2
aI2
asS'shatters'
p2223
(lp2224
I2
aI2
asS'stare'
p2225
(lp2226
I2
aI2
asS'prepare'
p2227
(lp2228
I2
aI2
asS'stark'
p2229
(lp2230
I4
aI4
asS'explosions'
p2231
(lp2232
I6
aI6
asS'drains'
p2233
(lp2234
I2
aI2
asS'above average'
p2235
(lp2236
I3
aI3
asS'seagal'
p2237
(lp2238
I6
aI6
asS'manipulative'
p2239
(lp2240
I13
aI13
asS'trying'
p2241
(lp2242
I38
aI38
asS'embedded'
p2243
(lp2244
I2
aI2
asS'comics'
p2245
(lp2246
I3
aI3
asS'freddy'
p2247
(lp2248
I4
aI4
asS'sadness'
p2249
(lp2250
I4
aI4
asS'native'
p2251
(lp2252
I2
aI2
asS'moved'
p2253
(lp2254
I6
aI6
asS'credibility'
p2255
(lp2256
I5
aI5
asS'green'
p2257
(lp2258
I11
aI11
asS'cinematography'
p2259
(lp2260
I7
aI7
asS'poor'
p2261
(lp2262
I12
aI12
asS'perils'
p2263
(lp2264
I2
aI2
asS'pool'
p2265
(lp2266
I4
aI4
asS'ramsay'
p2267
(lp2268
I5
aI5
asS'controlled'
p2269
(lp2270
I2
aI2
asS'pauly'
p2271
(lp2272
I2
aI2
asS'embracing'
p2273
(lp2274
I3
aI3
asS'surrounded'
p2275
(lp2276
I2
aI2
asS'thoughtful'
p2277
(lp2278
I20
aI20
asS'foster'
p2279
(lp2280
I3
aI3
asS"morrison's"
p2281
(lp2282
I2
aI2
asS'decide'
p2283
(lp2284
I2
aI2
asS'austerity'
p2285
(lp2286
I2
aI2
asS'conscience'
p2287
(lp2288
I2
aI2
asS'bio pic'
p2289
(lp2290
I3
aI3
asS'emotions'
p2291
(lp2292
I23
aI23
asS'learned'
p2293
(lp2294
I3
aI3
asS'answers'
p2295
(lp2296
I10
aI10
asS'whiny'
p2297
(lp2298
I4
aI4
asS'family'
p2299
(lp2300
I58
aI57
asS'disgusting'
p2301
(lp2302
I3
aI3
asS'conventional'
p2303
(lp2304
I11
aI11
asS'flaws'
p2305
(lp2306
I13
aI13
asS'contains'
p2307
(lp2308
I7
aI7
asS'heroic'
p2309
(lp2310
I3
aI3
asS'stylistic'
p2311
(lp2312
I5
aI5
asS'excuse'
p2313
(lp2314
I10
aI10
asS'history'
p2315
(lp2316
I44
aI44
asS'lacks'
p2317
(lp2318
I32
aI32
asS'firmly'
p2319
(lp2320
I2
aI2
asS'triumphs'
p2321
(lp2322
I3
aI3
asS'idiocy'
p2323
(lp2324
I3
aI3
asS'tries'
p2325
(lp2326
I30
aI28
asS'simple minded'
p2327
(lp2328
I3
aI3
asS'costner'
p2329
(lp2330
I5
aI5
asS'derives'
p2331
(lp2332
I2
aI2
asS'contrived'
p2333
(lp2334
I24
aI24
asS'self destructive'
p2335
(lp2336
I2
aI2
asS'dream'
p2337
(lp2338
I8
aI8
asS'crafty'
p2339
(lp2340
I2
aI2
asS'help'
p2341
(lp2342
I25
aI25
asS'depraved'
p2343
(lp2344
I3
aI3
asS'perceptive'
p2345
(lp2346
I4
aI4
asS'actually'
p2347
(lp2348
I41
aI38
asS'radical'
p2349
(lp2350
I3
aI3
asS'fool'
p2351
(lp2352
I3
aI3
asS'evening'
p2353
(lp2354
I2
aI2
asS'ye'
p2355
(lp2356
I2
aI2
asS'floating'
p2357
(lp2358
I2
aI2
asS'sweeping'
p2359
(lp2360
I5
aI5
asS"seagal's"
p2361
(lp2362
I2
aI2
asS'desperately'
p2363
(lp2364
I8
aI7
asS'referred'
p2365
(lp2366
I2
aI2
asS'heavy'
p2367
(lp2368
I16
aI16
asS'wacky'
p2369
(lp2370
I6
aI6
asS'beyond'
p2371
(lp2372
I31
aI29
asS'event'
p2373
(lp2374
I7
aI7
asS'raymond'
p2375
(lp2376
I2
aI2
asS'douglas'
p2377
(lp2378
I4
aI4
asS'settle'
p2379
(lp2380
I3
aI3
asS'sustain'
p2381
(lp2382
I18
aI18
asS'7'
p2383
(lp2384
I2
aI2
asS'issue'
p2385
(lp2386
I8
aI8
asS'earns'
p2387
(lp2388
I4
aI4
asS'inert'
p2389
(lp2390
I2
aI2
asS'chaiken'
p2391
(lp2392
I3
aI3
asS'ponderous'
p2393
(lp2394
I8
aI8
asS'reason'
p2395
(lp2396
I30
aI28
asS'hapless'
p2397
(lp2398
I2
aI2
asS'revolutionary'
p2399
(lp2400
I2
aI2
asS'american'
p2401
(lp2402
I63
aI62
asS'expecting'
p2403
(lp2404
I3
aI3
asS'kung'
p2405
(lp2406
I10
aI10
asS"[nelson's]"
p2407
(lp2408
I3
aI3
asS'effortless'
p2409
(lp2410
I2
aI2
asS'horse'
p2411
(lp2412
I3
aI3
asS'trapped'
p2413
(lp2414
I9
aI9
asS'jordan'
p2415
(lp2416
I3
aI3
asS'off beat'
p2417
(lp2418
I2
aI2
asS'bride'
p2419
(lp2420
I5
aI5
asS'greg'
p2421
(lp2422
I2
aI2
asS'vulnerable'
p2423
(lp2424
I2
aI2
asS'adrift'
p2425
(lp2426
I2
aI2
asS'scotland'
p2427
(lp2428
I2
aI2
asS'camouflage'
p2429
(lp2430
I2
aI2
asS'showcases'
p2431
(lp2432
I6
aI6
asS'fantasy adventure'
p2433
(lp2434
I2
aI2
asS'chronicle'
p2435
(lp2436
I3
aI3
asS'sturdy'
p2437
(lp2438
I2
aI2
asS'performances'
p2439
(lp2440
I89
aI88
asS'clean'
p2441
(lp2442
I3
aI3
asS'dominant'
p2443
(lp2444
I2
aI2
asS'interminably'
p2445
(lp2446
I2
aI2
asS'landscapes'
p2447
(lp2448
I2
aI2
asS"tolkien's"
p2449
(lp2450
I2
aI2
asS'feels'
p2451
(lp2452
I82
aI82
asS'clocks'
p2453
(lp2454
I2
aI2
asS'glover'
p2455
(lp2456
I3
aI3
asS'culture'
p2457
(lp2458
I24
aI24
asS'mckay'
p2459
(lp2460
I4
aI4
asS'years '
p2461
(lp2462
I2
aI2
asS'missing'
p2463
(lp2464
I18
aI18
asS"intacto's"
p2465
(lp2466
I2
aI2
asS'ratliff'
p2467
(lp2468
I2
aI2
asS'league'
p2469
(lp2470
I2
aI2
asS'collaborators'
p2471
(lp2472
I2
aI2
asS'drowns'
p2473
(lp2474
I3
aI3
asS"wouldn't"
p2475
(lp2476
I14
aI14
asS'sensitive'
p2477
(lp2478
I19
aI19
asS'experimental'
p2479
(lp2480
I3
aI3
asS'wear'
p2481
(lp2482
I3
aI3
asS'format'
p2483
(lp2484
I4
aI4
asS'manners'
p2485
(lp2486
I4
aI4
asS'vessel'
p2487
(lp2488
I2
aI2
asS'coarse'
p2489
(lp2490
I3
aI3
asS'collected'
p2491
(lp2492
I2
aI2
asS'delights'
p2493
(lp2494
I3
aI3
asS'dialogue'
p2495
(lp2496
I52
aI52
asS'lived'
p2497
(lp2498
I8
aI8
asS'kieran'
p2499
(lp2500
I2
aI2
asS'crack'
p2501
(lp2502
I2
aI2
asS'else'
p2503
(lp2504
I29
aI29
asS'juwanna'
p2505
(lp2506
I2
aI2
asS'imax'
p2507
(lp2508
I12
aI12
asS'accomplishes'
p2509
(lp2510
I3
aI3
asS'intriguing'
p2511
(lp2512
I32
aI32
asS'canadian'
p2513
(lp2514
I2
aI2
asS'smart'
p2515
(lp2516
I40
aI40
asS'animated'
p2517
(lp2518
I22
aI22
asS'uncompromising'
p2519
(lp2520
I7
aI7
asS'communal'
p2521
(lp2522
I3
aI3
asS'self indulgent'
p2523
(lp2524
I11
aI10
asS'grand'
p2525
(lp2526
I8
aI8
asS'composition'
p2527
(lp2528
I2
aI2
asS'bon'
p2529
(lp2530
I2
aI2
asS'uses'
p2531
(lp2532
I22
aI22
asS'haunting'
p2533
(lp2534
I13
aI13
asS'older'
p2535
(lp2536
I7
aI7
asS'obviously'
p2537
(lp2538
I9
aI9
asS'raimi'
p2539
(lp2540
I2
aI2
asS'grossly'
p2541
(lp2542
I2
aI2
asS'chord'
p2543
(lp2544
I4
aI4
asS'exploits'
p2545
(lp2546
I2
aI2
asS'breathtaking'
p2547
(lp2548
I9
aI9
asS'guaranteed'
p2549
(lp2550
I4
aI4
asS'transformation'
p2551
(lp2552
I3
aI3
asS'lacking'
p2553
(lp2554
I13
aI13
asS'inviting'
p2555
(lp2556
I3
aI3
asS'dreck'
p2557
(lp2558
I5
aI5
asS'popular'
p2559
(lp2560
I6
aI6
asS'sketch'
p2561
(lp2562
I5
aI5
asS'urgent'
p2563
(lp2564
I2
aI2
asS'lips'
p2565
(lp2566
I6
aI6
asS'minimal'
p2567
(lp2568
I2
aI2
asS'hypocritical'
p2569
(lp2570
I2
aI2
asS'nerves'
p2571
(lp2572
I2
aI2
asS'plots'
p2573
(lp2574
I2
aI2
asS'taboo'
p2575
(lp2576
I2
aI2
asS'indulgence'
p2577
(lp2578
I2
aI2
asS'within'
p2579
(lp2580
I13
aI13
asS'nonsense'
p2581
(lp2582
I9
aI9
asS'computer'
p2583
(lp2584
I6
aI6
asS'sizzle'
p2585
(lp2586
I4
aI3
asS'specialty'
p2587
(lp2588
I2
aI2
asS'tragically'
p2589
(lp2590
I2
aI2
asS'russian'
p2591
(lp2592
I6
aI6
asS'amateurish'
p2593
(lp2594
I8
aI8
asS'dull'
p2595
(lp2596
I42
aI41
asS'evocative'
p2597
(lp2598
I8
aI8
asS'cotton'
p2599
(lp2600
I2
aI2
asS'amounts'
p2601
(lp2602
I8
aI8
asS'grind'
p2603
(lp2604
I3
aI3
asS'department'
p2605
(lp2606
I2
aI2
asS'arithmetic'
p2607
(lp2608
I2
aI2
asS'bravado'
p2609
(lp2610
I2
aI2
asS'drag'
p2611
(lp2612
I14
aI14
asS'mamet'
p2613
(lp2614
I4
aI4
asS"evans'"
p2615
(lp2616
I2
aI2
asS'gibberish'
p2617
(lp2618
I2
aI2
asS'lower class'
p2619
(lp2620
I2
aI2
asS'kate'
p2621
(lp2622
I2
aI2
asS'languid'
p2623
(lp2624
I2
aI2
asS'suits'
p2625
(lp2626
I2
aI2
asS"lampoon's"
p2627
(lp2628
I2
aI2
asS'friendly'
p2629
(lp2630
I3
aI3
asS'duvall'
p2631
(lp2632
I2
aI2
asS'snide'
p2633
(lp2634
I2
aI2
asS'sublimely'
p2635
(lp2636
I2
aI2
asS'excruciating'
p2637
(lp2638
I4
aI4
asS'stiff'
p2639
(lp2640
I8
aI8
asS'compassionate'
p2641
(lp2642
I2
aI2
asS'tosca'
p2643
(lp2644
I4
aI3
asS'boots'
p2645
(lp2646
I2
aI2
asS'waking'
p2647
(lp2648
I3
aI3
asS'jump'
p2649
(lp2650
I3
aI3
asS'blowing'
p2651
(lp2652
I2
aI2
asS'picked'
p2653
(lp2654
I2
aI2
asS'plays'
p2655
(lp2656
I33
aI33
asS'evokes'
p2657
(lp2658
I6
aI6
asS'vampire'
p2659
(lp2660
I10
aI9
asS'cell'
p2661
(lp2662
I3
aI2
asS'melancholy'
p2663
(lp2664
I5
aI5
asS'upsetting'
p2665
(lp2666
I2
aI2
asS'following'
p2667
(lp2668
I8
aI8
asS'soaper'
p2669
(lp2670
I2
aI2
asS'haunts'
p2671
(lp2672
I3
aI3
asS'examining'
p2673
(lp2674
I2
aI2
asS'diversion'
p2675
(lp2676
I6
aI6
asS'gimmick'
p2677
(lp2678
I4
aI4
asS'crap'
p2679
(lp2680
I6
aI5
asS'hiding'
p2681
(lp2682
I2
aI2
asS'becomes'
p2683
(lp2684
I33
aI32
asS'charming'
p2685
(lp2686
I40
aI40
asS'quills'
p2687
(lp2688
I2
aI2
asS'ride'
p2689
(lp2690
I29
aI29
asS'crossed'
p2691
(lp2692
I2
aI2
asS'drops'
p2693
(lp2694
I2
aI2
asS'shtick'
p2695
(lp2696
I4
aI4
asS'introduces'
p2697
(lp2698
I4
aI4
asS'halloween'
p2699
(lp2700
I6
aI6
asS"polanski's"
p2701
(lp2702
I5
aI5
asS'femme'
p2703
(lp2704
I4
aI4
asS'neurotic'
p2705
(lp2706
I3
aI3
asS'fare'
p2707
(lp2708
I12
aI11
asS'farm'
p2709
(lp2710
I2
aI2
asS'fart'
p2711
(lp2712
I3
aI3
asS'soggy'
p2713
(lp2714
I5
aI5
asS'boils'
p2715
(lp2716
I2
aI2
asS'brittle'
p2717
(lp2718
I2
aI2
asS'subversive'
p2719
(lp2720
I8
aI8
asS'masses'
p2721
(lp2722
I2
aI2
asS'sunday'
p2723
(lp2724
I3
aI3
asS'surrounds'
p2725
(lp2726
I3
aI3
asS'catches'
p2727
(lp2728
I2
aI2
asS'cheerful'
p2729
(lp2730
I2
aI2
asS'transitions'
p2731
(lp2732
I2
aI2
asS'special'
p2733
(lp2734
I46
aI44
asS'scherfig'
p2735
(lp2736
I2
aI2
asS'slapdash'
p2737
(lp2738
I3
aI3
asS'tully'
p2739
(lp2740
I2
aI2
asS'darkly'
p2741
(lp2742
I4
aI4
asS'completely'
p2743
(lp2744
I30
aI30
asS"cho's"
p2745
(lp2746
I3
aI3
asS'powerful'
p2747
(lp2748
I30
aI29
asS'introspective'
p2749
(lp2750
I2
aI2
asS'bears'
p2751
(lp2752
I12
aI11
asS'wrapped'
p2753
(lp2754
I6
aI6
asS'perfectly'
p2755
(lp2756
I18
aI17
asS'exactly'
p2757
(lp2758
I23
aI23
asS'lists'
p2759
(lp2760
I2
aI2
asS'dumb'
p2761
(lp2762
I23
aI22
asS'distinguished'
p2763
(lp2764
I2
aI2
asS'howler'
p2765
(lp2766
I2
aI2
asS'portrait'
p2767
(lp2768
I27
aI27
asS'border'
p2769
(lp2770
I3
aI3
asS'complacency'
p2771
(lp2772
I2
aI2
asS'bourne'
p2773
(lp2774
I8
aI7
asS'clayburgh'
p2775
(lp2776
I2
aI2
asS'predicament'
p2777
(lp2778
I2
aI2
asS'intentions'
p2779
(lp2780
I10
aI10
asS'old time'
p2781
(lp2782
I2
aI2
asS'demise'
p2783
(lp2784
I2
aI2
asS'51'
p2785
(lp2786
I4
aI4
asS'brought'
p2787
(lp2788
I8
aI8
asS'undeniably'
p2789
(lp2790
I9
aI9
asS'verbinski'
p2791
(lp2792
I2
aI2
asS'sent'
p2793
(lp2794
I3
aI3
asS'anti semitism'
p2795
(lp2796
I2
aI2
asS'loveable'
p2797
(lp2798
I2
aI2
asS'partners'
p2799
(lp2800
I2
aI2
asS'hopeful'
p2801
(lp2802
I7
aI7
asS'ethan'
p2803
(lp2804
I2
aI2
asS'cameos'
p2805
(lp2806
I2
aI2
asS'pointed'
p2807
(lp2808
I5
aI5
asS'achieve'
p2809
(lp2810
I3
aI3
asS"bob's"
p2811
(lp2812
I2
aI2
asS'legitimate'
p2813
(lp2814
I2
aI2
asS'joins'
p2815
(lp2816
I2
aI2
asS'places'
p2817
(lp2818
I12
aI11
asS'shy'
p2819
(lp2820
I2
aI2
asS'processed'
p2821
(lp2822
I2
aI2
asS'transcendent'
p2823
(lp2824
I2
aI2
asS'motivations'
p2825
(lp2826
I2
aI2
asS'ill fitting'
p2827
(lp2828
I2
aI2
asS'eerily'
p2829
(lp2830
I2
aI2
asS'horrible'
p2831
(lp2832
I6
aI6
asS'neither'
p2833
(lp2834
I27
aI27
asS'sorely'
p2835
(lp2836
I3
aI3
asS'experiencia'
p2837
(lp2838
I2
aI2
asS'problem'
p2839
(lp2840
I33
aI33
asS'thank'
p2841
(lp2842
I2
aI2
asS'hits'
p2843
(lp2844
I13
aI13
asS'histrionics'
p2845
(lp2846
I2
aI2
asS'limits'
p2847
(lp2848
I3
aI3
asS'minutes'
p2849
(lp2850
I73
aI73
asS'strains'
p2851
(lp2852
I3
aI3
asS'jersey'
p2853
(lp2854
I3
aI3
asS'torn'
p2855
(lp2856
I3
aI3
asS'top notch'
p2857
(lp2858
I3
aI3
asS'distinguish'
p2859
(lp2860
I2
aI2
asS'cynicism'
p2861
(lp2862
I3
aI3
asS'poem'
p2863
(lp2864
I6
aI6
asS'sara'
p2865
(lp2866
I5
aI5
asS'treat'
p2867
(lp2868
I14
aI14
asS'releasing'
p2869
(lp2870
I2
aI2
asS'suspension'
p2871
(lp2872
I2
aI2
asS'kicks'
p2873
(lp2874
I3
aI3
asS'cuts'
p2875
(lp2876
I6
aI6
asS'undermines'
p2877
(lp2878
I2
aI2
asS'examines'
p2879
(lp2880
I3
aI3
asS'resident'
p2881
(lp2882
I2
aI2
asS'evelyn'
p2883
(lp2884
I2
aI2
asS'blasphemous'
p2885
(lp2886
I2
aI2
asS'campus'
p2887
(lp2888
I2
aI2
asS'dickens'
p2889
(lp2890
I3
aI3
asS'effect'
p2891
(lp2892
I14
aI14
asS'impeccable'
p2893
(lp2894
I3
aI3
asS'compendium'
p2895
(lp2896
I2
aI2
asS'anemic'
p2897
(lp2898
I2
aI2
asS"'my"
p2899
(lp2900
I2
aI2
asS'trials'
p2901
(lp2902
I2
aI2
asS'enormously'
p2903
(lp2904
I3
aI3
asS'discord'
p2905
(lp2906
I2
aI2
asS'accurate'
p2907
(lp2908
I5
aI5
asS'sources'
p2909
(lp2910
I4
aI3
asS'clashing'
p2911
(lp2912
I4
aI3
asS'lured'
p2913
(lp2914
I2
aI2
asS'ought'
p2915
(lp2916
I4
aI4
asS'ample'
p2917
(lp2918
I2
aI2
asS'formulaic'
p2919
(lp2920
I13
aI13
asS'immediately'
p2921
(lp2922
I3
aI3
asS'loss'
p2923
(lp2924
I14
aI14
asS'movie of the week'
p2925
(lp2926
I2
aI2
asS'refugees'
p2927
(lp2928
I3
aI3
asS'would be'
p2929
(lp2930
I2
aI2
asS'heartache'
p2931
(lp2932
I3
aI3
asS'steaming'
p2933
(lp2934
I2
aI2
asS'well worn'
p2935
(lp2936
I2
aI2
asS'injects'
p2937
(lp2938
I2
aI2
asS'reaching'
p2939
(lp2940
I2
aI2
asS'poignant'
p2941
(lp2942
I14
aI14
asS'instinct'
p2943
(lp2944
I2
aI2
asS'sinister'
p2945
(lp2946
I4
aI3
asS'wrenching'
p2947
(lp2948
I2
aI2
asS'dud'
p2949
(lp2950
I4
aI4
asS'evocation'
p2951
(lp2952
I2
aI2
asS'washington'
p2953
(lp2954
I4
aI4
asS'pointless'
p2955
(lp2956
I11
aI11
asS'adrenalin'
p2957
(lp2958
I2
aI2
asS"title's"
p2959
(lp2960
I2
aI2
asS'cricket'
p2961
(lp2962
I2
aI2
asS'north'
p2963
(lp2964
I2
aI2
asS'xerox'
p2965
(lp2966
I2
aI2
asS'prophecies'
p2967
(lp2968
I2
aI2
asS'limit'
p2969
(lp2970
I3
aI3
asS'piece'
p2971
(lp2972
I54
aI53
asS'mechanics'
p2973
(lp2974
I3
aI3
asS'generating'
p2975
(lp2976
I2
aI2
asS'beats'
p2977
(lp2978
I2
aI2
asS'unimpeachable'
p2979
(lp2980
I2
aI2
asS'offensive'
p2981
(lp2982
I12
aI12
asS'spellbinding'
p2983
(lp2984
I3
aI3
asS'crummy'
p2985
(lp2986
I2
aI2
asS'gross out'
p2987
(lp2988
I12
aI12
asS'inescapable'
p2989
(lp2990
I3
aI3
asS'stab'
p2991
(lp2992
I2
aI2
asS'rural'
p2993
(lp2994
I3
aI3
asS'extras'
p2995
(lp2996
I2
aI2
asS"greene's"
p2997
(lp2998
I3
aI3
asS'lives'
p2999
(lp3000
I28
aI28
asS'compromised'
p3001
(lp3002
I3
aI2
asS'unimaginative'
p3003
(lp3004
I4
aI4
asS'asian'
p3005
(lp3006
I3
aI3
asS'captain'
p3007
(lp3008
I2
aI2
asS'gamut'
p3009
(lp3010
I2
aI2
asS'intermingling'
p3011
(lp3012
I2
aI2
asS'look'
p3013
(lp3014
I116
aI115
asS'dominate'
p3015
(lp3016
I2
aI2
asS'skills'
p3017
(lp3018
I3
aI3
asS'naturalism'
p3019
(lp3020
I3
aI3
asS'clothes'
p3021
(lp3022
I3
aI3
asS'force'
p3023
(lp3024
I15
aI15
asS'japanese'
p3025
(lp3026
I13
aI13
asS'complexities'
p3027
(lp3028
I2
aI2
asS'sobre'
p3029
(lp3030
I3
aI3
asS'poorly'
p3031
(lp3032
I14
aI14
asS'ever'
p3033
(lp3034
I87
aI87
asS'relationships'
p3035
(lp3036
I14
aI13
asS'never'
p3037
(lp3038
I161
aI158
asS'disposable'
p3039
(lp3040
I6
aI6
asS'majidi'
p3041
(lp3042
I2
aI2
asS'piercing'
p3043
(lp3044
I2
aI2
asS'suitable'
p3045
(lp3046
I4
aI4
asS'fantastic'
p3047
(lp3048
I9
aI9
asS'ninety'
p3049
(lp3050
I2
aI2
asS'moral'
p3051
(lp3052
I17
aI17
asS'self aware'
p3053
(lp3054
I2
aI2
asS'calm'
p3055
(lp3056
I2
aI2
asS'type'
p3057
(lp3058
I10
aI10
asS'wars'
p3059
(lp3060
I7
aI7
asS'warm'
p3061
(lp3062
I19
aI19
asS'adult'
p3063
(lp3064
I9
aI9
asS'ward'
p3065
(lp3066
I2
aI2
asS'directorial'
p3067
(lp3068
I10
aI10
asS'setup'
p3069
(lp3070
I2
aI2
asS'somber'
p3071
(lp3072
I6
aI6
asS'exploitative'
p3073
(lp3074
I9
aI9
asS'give'
p3075
(lp3076
I57
aI56
asS'laughs'
p3077
(lp3078
I54
aI54
asS'involve'
p3079
(lp3080
I2
aI2
asS'loathe'
p3081
(lp3082
I2
aI2
asS'titular'
p3083
(lp3084
I2
aI2
asS'faults'
p3085
(lp3086
I4
aI4
asS'amazing'
p3087
(lp3088
I10
aI10
asS'attempt'
p3089
(lp3090
I27
aI27
asS'maintain'
p3091
(lp3092
I4
aI4
asS'unfolds'
p3093
(lp3094
I9
aI9
asS'mumbo'
p3095
(lp3096
I2
aI2
asS'kong'
p3097
(lp3098
I2
aI2
asS'tongue in cheek'
p3099
(lp3100
I3
aI3
asS'personal'
p3101
(lp3102
I29
aI29
asS'better'
p3103
(lp3104
I96
aI95
asS'schmidt'
p3105
(lp3106
I5
aI4
asS'pleasurable'
p3107
(lp3108
I3
aI3
asS'action comedy'
p3109
(lp3110
I3
aI3
asS'ecks'
p3111
(lp3112
I3
aI3
asS'immediacy'
p3113
(lp3114
I3
aI3
asS'spears'
p3115
(lp3116
I3
aI3
asS'sleepless'
p3117
(lp3118
I2
aI2
asS'droll'
p3119
(lp3120
I2
aI2
asS'meal'
p3121
(lp3122
I2
aI2
asS'doug'
p3123
(lp3124
I3
aI3
asS'aids'
p3125
(lp3126
I2
aI2
asS'comedies'
p3127
(lp3128
I22
aI22
asS'jell'
p3129
(lp3130
I2
aI2
asS'content'
p3131
(lp3132
I6
aI6
asS'fiery'
p3133
(lp3134
I2
aI2
asS'sluggish'
p3135
(lp3136
I5
aI5
asS'struggle'
p3137
(lp3138
I9
aI9
asS'starts'
p3139
(lp3140
I23
aI23
asS'007'
p3141
(lp3142
I2
aI2
asS'loud'
p3143
(lp3144
I12
aI12
asS'features'
p3145
(lp3146
I7
aI7
asS'hook'
p3147
(lp3148
I6
aI6
asS'banderas'
p3149
(lp3150
I2
aI2
asS'immensely'
p3151
(lp3152
I5
aI5
asS'masterfully'
p3153
(lp3154
I3
aI3
asS'monotonous'
p3155
(lp3156
I3
aI3
asS'afterschool'
p3157
(lp3158
I3
aI3
asS'escort'
p3159
(lp3160
I2
aI2
asS'high tech'
p3161
(lp3162
I3
aI3
asS'fairytale'
p3163
(lp3164
I2
aI2
asS'matter'
p3165
(lp3166
I37
aI37
asS'silly'
p3167
(lp3168
I47
aI43
asS'modern'
p3169
(lp3170
I35
aI35
asS'mind'
p3171
(lp3172
I30
aI30
asS"spears'"
p3173
(lp3174
I3
aI3
asS'canny'
p3175
(lp3176
I3
aI3
asS'seem'
p3177
(lp3178
I57
aI56
asS'psychologically'
p3179
(lp3180
I6
aI6
asS'rappers'
p3181
(lp3182
I2
aI2
asS'padding'
p3183
(lp3184
I2
aI2
asS'mushy'
p3185
(lp3186
I5
aI5
asS'impostor'
p3187
(lp3188
I6
aI6
asS'dog'
p3189
(lp3190
I12
aI12
asS'dover'
p3191
(lp3192
I2
aI2
asS'deftly'
p3193
(lp3194
I12
aI12
asS'attempts'
p3195
(lp3196
I14
aI14
asS'wearing'
p3197
(lp3198
I3
aI3
asS'colorful'
p3199
(lp3200
I11
aI11
asS'conduct'
p3201
(lp3202
I3
aI3
asS'coast'
p3203
(lp3204
I2
aI2
asS'smug'
p3205
(lp3206
I7
aI7
asS'dumbed down'
p3207
(lp3208
I5
aI5
asS'bar'
p3209
(lp3210
I3
aI3
asS'bad'
p3211
(lp3212
I140
aI128
asS'rival'
p3213
(lp3214
I3
aI3
asS'decides'
p3215
(lp3216
I4
aI4
asS'fascinating'
p3217
(lp3218
I40
aI39
asS'artificial'
p3219
(lp3220
I8
aI8
asS"there's"
p3221
(lp3222
I116
aI111
asS'meditative'
p3223
(lp3224
I2
aI2
asS'timeframe'
p3225
(lp3226
I2
aI2
asS'warrior'
p3227
(lp3228
I2
aI2
asS'lazy'
p3229
(lp3230
I12
aI12
asS'wears'
p3231
(lp3232
I8
aI8
asS'full bodied'
p3233
(lp3234
I2
aI2
asS'harvard'
p3235
(lp3236
I10
aI10
asS'awards'
p3237
(lp3238
I2
aI2
asS'picking'
p3239
(lp3240
I2
aI2
asS'meaningful'
p3241
(lp3242
I4
aI4
asS'contribution'
p3243
(lp3244
I2
aI2
asS'offerings'
p3245
(lp3246
I3
aI3
asS'inquisitive'
p3247
(lp3248
I2
aI2
asS'loaded'
p3249
(lp3250
I3
aI3
asS'interest'
p3251
(lp3252
I24
aI24
asS'threw'
p3253
(lp3254
I2
aI2
asS'website'
p3255
(lp3256
I2
aI2
asS'shattering'
p3257
(lp3258
I3
aI3
asS'gracias'
p3259
(lp3260
I2
aI2
asS'sly'
p3261
(lp3262
I5
aI5
asS'ugly'
p3263
(lp3264
I14
aI13
asS'chilling'
p3265
(lp3266
I9
aI9
asS'self assured'
p3267
(lp3268
I2
aI2
asS'iq'
p3269
(lp3270
I2
aI2
asS"opera's"
p3271
(lp3272
I2
aI2
asS'grown'
p3273
(lp3274
I2
aI2
asS'stein'
p3275
(lp3276
I2
aI2
asS'guillen'
p3277
(lp3278
I2
aI2
asS'unfortunate'
p3279
(lp3280
I3
aI3
asS'glibly'
p3281
(lp3282
I2
aI2
asS'delight'
p3283
(lp3284
I9
aI9
asS"he'll"
p3285
(lp3286
I3
aI3
asS'anarchists'
p3287
(lp3288
I2
aI2
asS'settled'
p3289
(lp3290
I2
aI2
asS'failing'
p3291
(lp3292
I2
aI2
asS'left'
p3293
(lp3294
I31
aI31
asS'wiser'
p3295
(lp3296
I2
aI2
asS'bu\xf1uel'
p3297
(lp3298
I2
aI2
asS'human'
p3299
(lp3300
I67
aI67
asS'facts'
p3301
(lp3302
I2
aI2
asS'yet'
p3303
(lp3304
I67
aI67
asS'save'
p3305
(lp3306
I11
aI11
asS'ops'
p3307
(lp3308
I6
aI5
asS'rehash'
p3309
(lp3310
I2
aI2
asS'flatulence'
p3311
(lp3312
I2
aI2
asS'perfunctory'
p3313
(lp3314
I2
aI2
asS'auspicious'
p3315
(lp3316
I2
aI2
asS"avary's"
p3317
(lp3318
I3
aI3
asS'sodden'
p3319
(lp3320
I2
aI2
asS'airhead'
p3321
(lp3322
I2
aI2
asS'visible'
p3323
(lp3324
I3
aI3
asS'unnecessary'
p3325
(lp3326
I6
aI6
asS'notorious'
p3327
(lp3328
I3
aI3
asS'clich\xe9'
p3329
(lp3330
I8
aI8
asS'dean'
p3331
(lp3332
I2
aI2
asS'dead'
p3333
(lp3334
I22
aI21
asS'dear'
p3335
(lp3336
I2
aI2
asS'bold'
p3337
(lp3338
I7
aI7
asS"famuyiwa's"
p3339
(lp3340
I2
aI2
asS'boll'
p3341
(lp3342
I2
aI2
asS'protagonist'
p3343
(lp3344
I8
aI8
asS'low key'
p3345
(lp3346
I9
aI9
asS"something's"
p3347
(lp3348
I2
aI2
asS"project's"
p3349
(lp3350
I2
aI2
asS"world's"
p3351
(lp3352
I8
aI8
asS'overkill'
p3353
(lp3354
I3
aI3
asS'narration'
p3355
(lp3356
I2
aI2
asS'insult'
p3357
(lp3358
I3
aI3
asS'jealousy'
p3359
(lp3360
I8
aI8
asS'lurid'
p3361
(lp3362
I2
aI2
asS'polemical'
p3363
(lp3364
I2
aI2
asS'secondhand'
p3365
(lp3366
I2
aI2
asS'disarmingly'
p3367
(lp3368
I2
aI2
asS'cuban'
p3369
(lp3370
I2
aI2
asS'ford'
p3371
(lp3372
I7
aI7
asS'failure'
p3373
(lp3374
I8
aI7
asS'surprising'
p3375
(lp3376
I22
aI22
asS"oedekerk's"
p3377
(lp3378
I2
aI2
asS'attached'
p3379
(lp3380
I2
aI2
asS'classic'
p3381
(lp3382
I26
aI26
asS'sticky'
p3383
(lp3384
I2
aI2
asS'pileup'
p3385
(lp3386
I2
aI2
asS'ship'
p3387
(lp3388
I6
aI6
asS'modernize'
p3389
(lp3390
I2
aI2
asS'holly'
p3391
(lp3392
I2
aI2
asS'gradually'
p3393
(lp3394
I6
aI6
asS'journey'
p3395
(lp3396
I23
aI23
asS'jones'
p3397
(lp3398
I9
aI9
asS'teeth'
p3399
(lp3400
I2
aI2
asS'managed'
p3401
(lp3402
I6
aI6
asS'themed'
p3403
(lp3404
I2
aI2
asS'skip'
p3405
(lp3406
I8
aI8
asS'souls'
p3407
(lp3408
I7
aI7
asS'themes'
p3409
(lp3410
I15
aI15
asS'mild'
p3411
(lp3412
I8
aI8
asS'skin'
p3413
(lp3414
I16
aI16
asS'father'
p3415
(lp3416
I11
aI11
asS'little known'
p3417
(lp3418
I2
aI2
asS'unpleasant'
p3419
(lp3420
I12
aI12
asS'shoot'
p3421
(lp3422
I5
aI5
asS'tends'
p3423
(lp3424
I2
aI2
asS'economical'
p3425
(lp3426
I2
aI2
asS'sappy'
p3427
(lp3428
I7
aI7
asS'screenplays'
p3429
(lp3430
I3
aI3
asS'die'
p3431
(lp3432
I7
aI7
asS'item'
p3433
(lp3434
I2
aI2
asS'turgid'
p3435
(lp3436
I3
aI3
asS'dip'
p3437
(lp3438
I2
aI2
asS'unexpected'
p3439
(lp3440
I13
aI13
asS'dealing'
p3441
(lp3442
I9
aI9
asS'inconsequential'
p3443
(lp3444
I6
aI6
asS'diapers'
p3445
(lp3446
I2
aI2
asS'[director'
p3447
(lp3448
I2
aI2
asS'twaddle'
p3449
(lp3450
I3
aI3
asS'janklowicz mann'
p3451
(lp3452
I2
aI2
asS'suspect'
p3453
(lp3454
I5
aI5
asS'filled'
p3455
(lp3456
I11
aI11
asS'makeup'
p3457
(lp3458
I2
aI2
asS'french'
p3459
(lp3460
I31
aI31
asS'grotesque'
p3461
(lp3462
I2
aI2
asS'maguire'
p3463
(lp3464
I3
aI3
asS'bratty'
p3465
(lp3466
I2
aI2
asS'priceless'
p3467
(lp3468
I3
aI3
asS'dick'
p3469
(lp3470
I2
aI2
asS'everybody'
p3471
(lp3472
I4
aI4
asS'ungainly'
p3473
(lp3474
I2
aI2
asS'joyous'
p3475
(lp3476
I3
aI3
asS'france'
p3477
(lp3478
I3
aI3
asS'sharing'
p3479
(lp3480
I2
aI2
asS'condescension'
p3481
(lp3482
I2
aI2
asS'downtown'
p3483
(lp3484
I2
aI2
asS'payoff'
p3485
(lp3486
I4
aI4
asS'revisionist'
p3487
(lp3488
I2
aI2
asS'soul'
p3489
(lp3490
I12
aI12
asS'sour'
p3491
(lp3492
I6
aI6
asS'drags'
p3493
(lp3494
I8
aI8
asS'overproduced'
p3495
(lp3496
I3
aI3
asS'firing'
p3497
(lp3498
I2
aI2
asS'9 11'
p3499
(lp3500
I2
aI2
asS'guarded'
p3501
(lp3502
I2
aI2
asS'kinnear'
p3503
(lp3504
I3
aI3
asS'pure'
p3505
(lp3506
I16
aI16
asS'may'
p3507
(lp3508
I150
aI147
asS'designed'
p3509
(lp3510
I10
aI10
asS'destructive'
p3511
(lp3512
I2
aI2
asS'guys'
p3513
(lp3514
I19
aI18
asS'outline'
p3515
(lp3516
I3
aI3
asS'maybe'
p3517
(lp3518
I17
aI17
asS'tale'
p3519
(lp3520
I76
aI76
asS'killers'
p3521
(lp3522
I2
aI2
asS"davis'"
p3523
(lp3524
I2
aI2
asS'interesting'
p3525
(lp3526
I72
aI72
asS"neighbor's"
p3527
(lp3528
I3
aI3
asS'superman'
p3529
(lp3530
I2
aI2
asS'tucked'
p3531
(lp3532
I2
aI2
asS'soulful'
p3533
(lp3534
I6
aI6
asS'binks'
p3535
(lp3536
I2
aI2
asS'touching'
p3537
(lp3538
I28
aI28
asS"carpenter's"
p3539
(lp3540
I4
aI4
asS'liberating'
p3541
(lp3542
I3
aI3
asS'surfeit'
p3543
(lp3544
I2
aI2
asS'sopranos'
p3545
(lp3546
I3
aI3
asS'richly'
p3547
(lp3548
I7
aI7
asS'description'
p3549
(lp3550
I2
aI2
asS'brimming'
p3551
(lp3552
I3
aI3
asS'chen'
p3553
(lp3554
I2
aI2
asS'advance'
p3555
(lp3556
I3
aI3
asS'language'
p3557
(lp3558
I6
aI6
asS'thing'
p3559
(lp3560
I80
aI77
asS'think'
p3561
(lp3562
I52
aI50
asS'long'
p3563
(lp3564
I91
aI86
asS'suspended'
p3565
(lp3566
I2
aI2
asS'cheesy'
p3567
(lp3568
I8
aI8
asS'little'
p3569
(lp3570
I170
aI165
asS'murky'
p3571
(lp3572
I4
aI4
asS'anyone'
p3573
(lp3574
I50
aI49
asS'eyes'
p3575
(lp3576
I23
aI23
asS'allegedly'
p3577
(lp3578
I3
aI3
asS'neverland'
p3579
(lp3580
I3
aI3
asS'sequels'
p3581
(lp3582
I6
aI6
asS'conceivable'
p3583
(lp3584
I2
aI2
asS'11'
p3585
(lp3586
I3
aI3
asS'10'
p3587
(lp3588
I8
aI8
asS'13'
p3589
(lp3590
I2
aI2
asS'notches'
p3591
(lp3592
I2
aI2
asS'orgy'
p3593
(lp3594
I2
aI2
asS'venture'
p3595
(lp3596
I2
aI2
asS'muckraking'
p3597
(lp3598
I2
aI2
asS'piccoli'
p3599
(lp3600
I3
aI3
asS'occupied'
p3601
(lp3602
I2
aI2
asS'kevin'
p3603
(lp3604
I11
aI11
asS'recreated'
p3605
(lp3606
I2
aI2
asS'half hearted'
p3607
(lp3608
I3
aI3
asS'purest'
p3609
(lp3610
I2
aI2
asS'creatively'
p3611
(lp3612
I2
aI2
asS'performance'
p3613
(lp3614
I89
aI88
asS'pranks'
p3615
(lp3616
I3
aI3
asS'channel'
p3617
(lp3618
I7
aI6
asS'trace'
p3619
(lp3620
I2
aI2
asS'track'
p3621
(lp3622
I3
aI3
asS'nolan'
p3623
(lp3624
I3
aI3
asS'especially'
p3625
(lp3626
I37
aI37
asS'contemporary'
p3627
(lp3628
I17
aI17
asS'pump'
p3629
(lp3630
I2
aI2
asS'threshold'
p3631
(lp3632
I2
aI2
asS'nakata'
p3633
(lp3634
I2
aI2
asS'black'
p3635
(lp3636
I28
aI27
asS'awareness'
p3637
(lp3638
I2
aI2
asS'get'
p3639
(lp3640
I103
aI102
asS'refreshed'
p3641
(lp3642
I2
aI2
asS'nearly'
p3643
(lp3644
I41
aI41
asS'gem'
p3645
(lp3646
I10
aI10
asS'gel'
p3647
(lp3648
I4
aI4
asS'sickly'
p3649
(lp3650
I2
aI2
asS'stupid'
p3651
(lp3652
I15
aI15
asS'well intentioned'
p3653
(lp3654
I3
aI3
asS'exuberant'
p3655
(lp3656
I2
aI2
asS'worrying'
p3657
(lp3658
I2
aI2
asS'manages'
p3659
(lp3660
I39
aI39
asS'branagh'
p3661
(lp3662
I2
aI2
asS'honesty'
p3663
(lp3664
I7
aI7
asS'twin'
p3665
(lp3666
I2
aI2
asS'relative'
p3667
(lp3668
I2
aI2
asS'satisfying'
p3669
(lp3670
I25
aI25
asS'gags'
p3671
(lp3672
I27
aI27
asS'boundaries'
p3673
(lp3674
I3
aI3
asS'parent'
p3675
(lp3676
I2
aI2
asS'jr'
p3677
(lp3678
I3
aI3
asS'killing'
p3679
(lp3680
I2
aI2
asS'stinker'
p3681
(lp3682
I3
aI3
asS'according'
p3683
(lp3684
I3
aI3
asS'restroom'
p3685
(lp3686
I2
aI2
asS'disappointment'
p3687
(lp3688
I5
aI5
asS'audiard'
p3689
(lp3690
I2
aI2
asS'cancer'
p3691
(lp3692
I2
aI2
asS'stretched'
p3693
(lp3694
I2
aI2
asS'tiresomely'
p3695
(lp3696
I2
aI2
asS'unusual'
p3697
(lp3698
I14
aI14
asS'arty'
p3699
(lp3700
I2
aI2
asS'mark'
p3701
(lp3702
I15
aI15
asS'jfk'
p3703
(lp3704
I2
aI2
asS'hodgepodge'
p3705
(lp3706
I2
aI2
asS"'analyze"
p3707
(lp3708
I3
aI2
asS'odyssey'
p3709
(lp3710
I3
aI3
asS'far fetched'
p3711
(lp3712
I2
aI2
asS'promising'
p3713
(lp3714
I9
aI9
asS'purportedly'
p3715
(lp3716
I2
aI2
asS'dangerously'
p3717
(lp3718
I3
aI3
asS'obnoxious'
p3719
(lp3720
I6
aI6
asS'everyday'
p3721
(lp3722
I7
aI7
asS'pap'
p3723
(lp3724
I2
aI2
asS'different'
p3725
(lp3726
I23
aI23
asS'harsh'
p3727
(lp3728
I6
aI6
asS'pay'
p3729
(lp3730
I10
aI10
asS'tour'
p3731
(lp3732
I9
aI9
asS'heartbreak'
p3733
(lp3734
I2
aI2
asS'leaks'
p3735
(lp3736
I2
aI2
asS'companion'
p3737
(lp3738
I2
aI2
asS'running'
p3739
(lp3740
I26
aI26
asS'animatronic'
p3741
(lp3742
I2
aI2
asS'parody'
p3743
(lp3744
I9
aI9
asS'money'
p3745
(lp3746
I13
aI13
asS'sights'
p3747
(lp3748
I2
aI2
asS'clueless'
p3749
(lp3750
I2
aI2
asS'pile'
p3751
(lp3752
I8
aI8
asS'grating'
p3753
(lp3754
I4
aI4
asS'pill'
p3755
(lp3756
I2
aI2
asS'careers'
p3757
(lp3758
I2
aI2
asS'unsubtle'
p3759
(lp3760
I2
aI2
asS'mom'
p3761
(lp3762
I2
aI2
asS'disappointed'
p3763
(lp3764
I9
aI9
asS'adams'
p3765
(lp3766
I3
aI3
asS'miraculous'
p3767
(lp3768
I2
aI2
asS'classified'
p3769
(lp3770
I2
aI2
asS'muddled'
p3771
(lp3772
I6
aI6
asS'images'
p3773
(lp3774
I30
aI30
asS'claustrophobic'
p3775
(lp3776
I4
aI4
asS'vistas'
p3777
(lp3778
I2
aI2
asS'manufactured'
p3779
(lp3780
I2
aI2
asS'arts'
p3781
(lp3782
I6
aI6
asS'violence'
p3783
(lp3784
I15
aI15
asS'road'
p3785
(lp3786
I15
aI15
asS'quietly'
p3787
(lp3788
I9
aI9
asS'references'
p3789
(lp3790
I6
aI6
asS'strip'
p3791
(lp3792
I2
aI2
asS'exceptional'
p3793
(lp3794
I7
aI7
asS'motives'
p3795
(lp3796
I2
aI2
asS'strikes'
p3797
(lp3798
I6
aI6
asS'sophisticated'
p3799
(lp3800
I6
aI6
asS'romantic'
p3801
(lp3802
I68
aI67
asS"wasn't"
p3803
(lp3804
I14
aI14
asS'dvd'
p3805
(lp3806
I7
aI7
asS'affection'
p3807
(lp3808
I10
aI10
asS'videos'
p3809
(lp3810
I3
aI3
asS'deep'
p3811
(lp3812
I19
aI19
asS'film'
p3813
(lp3814
I827
aI811
asS'tedious'
p3815
(lp3816
I20
aI20
asS'recognizable'
p3817
(lp3818
I2
aI2
asS'ch\xe2teau'
p3819
(lp3820
I2
aI2
asS'prism'
p3821
(lp3822
I2
aI2
asS'self parody'
p3823
(lp3824
I2
aI2
asS'shadyac'
p3825
(lp3826
I2
aI2
asS'stilted'
p3827
(lp3828
I3
aI3
asS'mishmash'
p3829
(lp3830
I3
aI3
asS'awkwardly'
p3831
(lp3832
I4
aI4
asS'pitifully'
p3833
(lp3834
I2
aI2
asS'remote'
p3835
(lp3836
I2
aI2
asS'driving'
p3837
(lp3838
I2
aI2
asS'casts'
p3839
(lp3840
I3
aI3
asS"life's"
p3841
(lp3842
I5
aI5
asS'shafer'
p3843
(lp3844
I2
aI2
asS'hugely'
p3845
(lp3846
I6
aI6
asS'resembles'
p3847
(lp3848
I5
aI5
asS'sketchiest'
p3849
(lp3850
I2
aI2
asS'bmw'
p3851
(lp3852
I2
aI2
asS'vile'
p3853
(lp3854
I2
aI2
asS'chabrol'
p3855
(lp3856
I3
aI3
asS'reluctant'
p3857
(lp3858
I2
aI2
asS'wants'
p3859
(lp3860
I12
aI12
asS'hideous'
p3861
(lp3862
I2
aI2
asS'straightforward'
p3863
(lp3864
I8
aI8
asS'sitting'
p3865
(lp3866
I11
aI11
asS'catherine'
p3867
(lp3868
I2
aI2
asS'outtakes'
p3869
(lp3870
I2
aI2
asS'intricately'
p3871
(lp3872
I2
aI2
asS'form'
p3873
(lp3874
I22
aI22
asS'neighborhood'
p3875
(lp3876
I2
aI2
asS'set up'
p3877
(lp3878
I2
aI2
asS'saddled'
p3879
(lp3880
I2
aI2
asS'zero'
p3881
(lp3882
I2
aI2
asS'perspective'
p3883
(lp3884
I9
aI9
asS'breckin'
p3885
(lp3886
I2
aI2
asS'squanders'
p3887
(lp3888
I2
aI2
asS'creatures'
p3889
(lp3890
I3
aI3
asS'abc'
p3891
(lp3892
I2
aI2
asS'centering'
p3893
(lp3894
I2
aI2
asS'illogical'
p3895
(lp3896
I2
aI2
asS'sweetly'
p3897
(lp3898
I5
aI5
asS'schumacher'
p3899
(lp3900
I2
aI2
asS'mull'
p3901
(lp3902
I3
aI3
asS'disastrous'
p3903
(lp3904
I2
aI2
asS'affectionately'
p3905
(lp3906
I2
aI2
asS'fantasies'
p3907
(lp3908
I2
aI2
asS'stretching'
p3909
(lp3910
I2
aI2
asS'jackie'
p3911
(lp3912
I7
aI6
asS'misery'
p3913
(lp3914
I4
aI4
asS'narrow'
p3915
(lp3916
I2
aI2
asS'sadism'
p3917
(lp3918
I3
aI3
asS'readily'
p3919
(lp3920
I2
aI2
asS'eye'
p3921
(lp3922
I14
aI14
asS'distinct'
p3923
(lp3924
I4
aI4
asS'tacky'
p3925
(lp3926
I2
aI2
asS'feature length'
p3927
(lp3928
I4
aI4
asS'canon'
p3929
(lp3930
I2
aI2
asS'brisk'
p3931
(lp3932
I6
aI6
asS"family's"
p3933
(lp3934
I3
aI3
asS'none'
p3935
(lp3936
I23
aI23
asS'shainberg'
p3937
(lp3938
I2
aI2
asS'hour'
p3939
(lp3940
I26
aI25
asS'compare'
p3941
(lp3942
I2
aI2
asS'pro'
p3943
(lp3944
I2
aI2
asS'minimum'
p3945
(lp3946
I3
aI3
asS'numbers'
p3947
(lp3948
I12
aI12
asS'sharp'
p3949
(lp3950
I19
aI19
asS'wisely'
p3951
(lp3952
I3
aI3
asS'awkward'
p3953
(lp3954
I8
aI8
asS'flawless'
p3955
(lp3956
I2
aI2
asS'needy'
p3957
(lp3958
I2
aI2
asS'fame'
p3959
(lp3960
I2
aI2
asS'advice'
p3961
(lp3962
I3
aI3
asS'questioning'
p3963
(lp3964
I3
aI3
asS'uninspired'
p3965
(lp3966
I6
aI6
asS'orchard'
p3967
(lp3968
I2
aI2
asS'coat'
p3969
(lp3970
I2
aI2
asS'blandness'
p3971
(lp3972
I3
aI3
asS'pleasure'
p3973
(lp3974
I28
aI28
asS'playing'
p3975
(lp3976
I15
aI15
asS'heartfelt'
p3977
(lp3978
I8
aI8
asS'clumsily'
p3979
(lp3980
I7
aI7
asS'visceral'
p3981
(lp3982
I9
aI9
asS'25'
p3983
(lp3984
I2
aI2
asS'zhuangzhuang'
p3985
(lp3986
I2
aI2
asS'pena'
p3987
(lp3988
I2
aI2
asS'someone'
p3989
(lp3990
I20
aI20
asS'encouraging'
p3991
(lp3992
I6
aI6
asS'harm'
p3993
(lp3994
I2
aI2
asS'hard'
p3995
(lp3996
I70
aI68
asS'idea'
p3997
(lp3998
I36
aI36
asS'engaging'
p3999
(lp4000
I35
aI35
asS'fist'
p4001
(lp4002
I2
aI2
asS'lovers'
p4003
(lp4004
I5
aI4
asS"week's"
p4005
(lp4006
I2
aI2
asS'tiresome'
p4007
(lp4008
I11
aI11
asS'pathetic'
p4009
(lp4010
I8
aI8
asS'lawrence'
p4011
(lp4012
I6
aI6
asS'pleasant'
p4013
(lp4014
I11
aI11
asS'members'
p4015
(lp4016
I8
aI8
asS'laughable'
p4017
(lp4018
I5
aI5
asS'audacity'
p4019
(lp4020
I2
aI2
asS'neglects'
p4021
(lp4022
I2
aI2
asS'dong'
p4023
(lp4024
I5
aI5
asS'indulgent'
p4025
(lp4026
I3
aI3
asS'statement'
p4027
(lp4028
I3
aI3
asS'mama'
p4029
(lp4030
I2
aI2
asS'excels'
p4031
(lp4032
I3
aI3
asS'part'
p4033
(lp4034
I40
aI36
asS'hearst'
p4035
(lp4036
I2
aI2
asS'gotten'
p4037
(lp4038
I3
aI3
asS'supposed'
p4039
(lp4040
I16
aI16
asS'ages'
p4041
(lp4042
I8
aI8
asS'uninvolving'
p4043
(lp4044
I2
aI2
asS'built'
p4045
(lp4046
I8
aI8
asS'lifts'
p4047
(lp4048
I4
aI4
asS'commentary'
p4049
(lp4050
I6
aI6
asS'insufferable'
p4051
(lp4052
I3
aI3
asS'rifkin'
p4053
(lp4054
I2
aI2
asS'conspicuously'
p4055
(lp4056
I2
aI2
asS'charm'
p4057
(lp4058
I42
aI42
asS'middle of the road'
p4059
(lp4060
I2
aI2
asS'drifts'
p4061
(lp4062
I2
aI2
asS'humane'
p4063
(lp4064
I2
aI2
asS"wells'"
p4065
(lp4066
I3
aI2
asS'scattered'
p4067
(lp4068
I6
aI6
asS'carefully'
p4069
(lp4070
I6
aI6
asS'fine'
p4071
(lp4072
I32
aI32
asS'chimes'
p4073
(lp4074
I2
aI2
asS'19th'
p4075
(lp4076
I2
aI2
asS'8'
p4077
(lp4078
I3
aI3
asS'prowess'
p4079
(lp4080
I3
aI3
asS'express'
p4081
(lp4082
I3
aI3
asS'full length'
p4083
(lp4084
I3
aI3
asS'frankly'
p4085
(lp4086
I4
aI4
asS'unexplainable'
p4087
(lp4088
I2
aI2
asS'garcia'
p4089
(lp4090
I3
aI3
asS'spiked'
p4091
(lp4092
I2
aI2
asS'endeavor'
p4093
(lp4094
I6
aI6
asS'unmistakable'
p4095
(lp4096
I3
aI3
asS'tender'
p4097
(lp4098
I10
aI10
asS'meandering'
p4099
(lp4100
I7
aI7
asS'myriad'
p4101
(lp4102
I2
aI2
asS'masterful'
p4103
(lp4104
I5
aI5
asS'premise'
p4105
(lp4106
I43
aI43
asS'inimitable'
p4107
(lp4108
I3
aI3
asS'lightness'
p4109
(lp4110
I3
aI3
asS'foreign'
p4111
(lp4112
I10
aI10
asS'simple'
p4113
(lp4114
I27
aI27
asS'simply'
p4115
(lp4116
I44
aI44
asS'openness'
p4117
(lp4118
I3
aI3
asS'throughout'
p4119
(lp4120
I15
aI15
asS"'it's"
p4121
(lp4122
I2
aI2
asS'gag'
p4123
(lp4124
I8
aI8
asS'underdogs'
p4125
(lp4126
I2
aI2
asS'solid'
p4127
(lp4128
I29
aI29
asS'sexuality'
p4129
(lp4130
I2
aI2
asS'fun'
p4131
(lp4132
I103
aI102
asS'grip'
p4133
(lp4134
I2
aI2
asS'shoddy'
p4135
(lp4136
I3
aI3
asS'neuroses'
p4137
(lp4138
I2
aI2
asS'itch'
p4139
(lp4140
I2
aI2
asS"palma's"
p4141
(lp4142
I2
aI2
asS'infuses'
p4143
(lp4144
I4
aI4
asS'purpose'
p4145
(lp4146
I12
aI12
asS'celebratory'
p4147
(lp4148
I2
aI2
asS'finesse'
p4149
(lp4150
I2
aI2
asS'werewolf'
p4151
(lp4152
I2
aI2
asS'spent'
p4153
(lp4154
I6
aI6
asS'landmark'
p4155
(lp4156
I2
aI2
asS'ludicrous'
p4157
(lp4158
I7
aI7
asS'profoundly'
p4159
(lp4160
I2
aI2
asS'openly'
p4161
(lp4162
I2
aI2
asS'elegance'
p4163
(lp4164
I3
aI3
asS'quieter'
p4165
(lp4166
I2
aI2
asS'superficial'
p4167
(lp4168
I10
aI10
asS'undistinguished'
p4169
(lp4170
I2
aI2
asS'excited'
p4171
(lp4172
I2
aI2
asS'sensational'
p4173
(lp4174
I4
aI4
asS'redeem'
p4175
(lp4176
I2
aI2
asS'bit'
p4177
(lp4178
I53
aI52
asS'effectiveness'
p4179
(lp4180
I2
aI2
asS'forcefulness'
p4181
(lp4182
I2
aI2
asS'indication'
p4183
(lp4184
I2
aI2
asS'mediocrity'
p4185
(lp4186
I4
aI4
asS'hudlin'
p4187
(lp4188
I2
aI2
asS'foolish'
p4189
(lp4190
I2
aI2
asS'scale'
p4191
(lp4192
I8
aI7
asS'proficient'
p4193
(lp4194
I2
aI2
asS"mamet's"
p4195
(lp4196
I2
aI2
asS'cut and paste'
p4197
(lp4198
I2
aI2
asS'bogus'
p4199
(lp4200
I6
aI6
asS'epic'
p4201
(lp4202
I19
aI19
asS'blockbusters'
p4203
(lp4204
I2
aI2
asS'subconscious'
p4205
(lp4206
I2
aI2
asS'goods'
p4207
(lp4208
I4
aI4
asS'hackneyed'
p4209
(lp4210
I8
aI8
asS'drama'
p4211
(lp4212
I105
aI103
asS'maelstrom'
p4213
(lp4214
I2
aI2
asS'well paced'
p4215
(lp4216
I2
aI2
asS'aliens'
p4217
(lp4218
I3
aI3
asS'frames'
p4219
(lp4220
I2
aI2
asS'bored'
p4221
(lp4222
I8
aI8
asS'boys'
p4223
(lp4224
I14
aI14
asS'cram'
p4225
(lp4226
I2
aI2
asS'laziest'
p4227
(lp4228
I2
aI2
asS'biggie'
p4229
(lp4230
I2
aI2
asS'sort'
p4231
(lp4232
I41
aI39
asS'constant'
p4233
(lp4234
I7
aI7
asS'scarlet'
p4235
(lp4236
I2
aI2
asS'denying'
p4237
(lp4238
I8
aI8
asS'showgirls'
p4239
(lp4240
I2
aI2
asS'desert'
p4241
(lp4242
I2
aI2
asS'2002'
p4243
(lp4244
I11
aI11
asS'bloodwork'
p4245
(lp4246
I2
aI2
asS'inevitably'
p4247
(lp4248
I2
aI2
asS'literary'
p4249
(lp4250
I11
aI11
asS'helps'
p4251
(lp4252
I6
aI6
asS'pleasing'
p4253
(lp4254
I8
aI8
asS'stupefying'
p4255
(lp4256
I2
aI2
asS'random'
p4257
(lp4258
I3
aI3
asS'resonant'
p4259
(lp4260
I8
aI8
asS'entire'
p4261
(lp4262
I16
aI16
asS'mesmerizing'
p4263
(lp4264
I12
aI12
asS'shock'
p4265
(lp4266
I8
aI8
asS'choppy'
p4267
(lp4268
I5
aI5
asS'unsatisfied'
p4269
(lp4270
I2
aI2
asS'chomp'
p4271
(lp4272
I2
aI2
asS'uncomfortable'
p4273
(lp4274
I3
aI3
asS'depression'
p4275
(lp4276
I3
aI3
asS'access'
p4277
(lp4278
I2
aI2
asS'exercise'
p4279
(lp4280
I26
aI26
asS'nonexistent'
p4281
(lp4282
I3
aI3
asS'healing'
p4283
(lp4284
I3
aI3
asS'hashiguchi'
p4285
(lp4286
I3
aI3
asS'extreme'
p4287
(lp4288
I13
aI12
asS'named'
p4289
(lp4290
I5
aI5
asS'limp'
p4291
(lp4292
I4
aI4
asS'scandal'
p4293
(lp4294
I2
aI2
asS'resolutions'
p4295
(lp4296
I3
aI3
asS'cho'
p4297
(lp4298
I3
aI3
asS'100 minute'
p4299
(lp4300
I2
aI2
asS'award winning'
p4301
(lp4302
I2
aI2
asS'payne'
p4303
(lp4304
I4
aI4
asS'trail'
p4305
(lp4306
I2
aI2
asS'oscar nominated'
p4307
(lp4308
I2
aI2
asS'tattered'
p4309
(lp4310
I3
aI3
asS'britney'
p4311
(lp4312
I6
aI6
asS'obvious'
p4313
(lp4314
I34
aI34
asS'misfires'
p4315
(lp4316
I2
aI2
asS'scarface'
p4317
(lp4318
I2
aI2
asS'bones'
p4319
(lp4320
I3
aI3
asS'daring'
p4321
(lp4322
I9
aI9
asS'lame'
p4323
(lp4324
I14
aI14
asS'waters'
p4325
(lp4326
I2
aI2
asS'collection'
p4327
(lp4328
I7
aI7
asS'mixed'
p4329
(lp4330
I7
aI7
asS'frat'
p4331
(lp4332
I2
aI2
asS'nary'
p4333
(lp4334
I2
aI2
asS'trembling'
p4335
(lp4336
I2
aI2
asS'metaphors'
p4337
(lp4338
I6
aI6
asS'furious'
p4339
(lp4340
I2
aI2
asS'mothman'
p4341
(lp4342
I2
aI2
asS'struggles'
p4343
(lp4344
I4
aI4
asS'flattering'
p4345
(lp4346
I2
aI2
asS'vividly'
p4347
(lp4348
I7
aI7
asS'winning'
p4349
(lp4350
I11
aI11
asS'willing'
p4351
(lp4352
I5
aI5
asS'kindness'
p4353
(lp4354
I2
aI2
asS'stunts'
p4355
(lp4356
I9
aI9
asS'thrill'
p4357
(lp4358
I6
aI6
asS'warned'
p4359
(lp4360
I2
aI2
asS'lathan'
p4361
(lp4362
I2
aI2
asS'wilde'
p4363
(lp4364
I2
aI2
asS'gazing'
p4365
(lp4366
I2
aI2
asS'warner'
p4367
(lp4368
I3
aI3
asS'plods'
p4369
(lp4370
I2
aI2
asS'red'
p4371
(lp4372
I14
aI14
asS'coen'
p4373
(lp4374
I2
aI2
asS'unmemorable'
p4375
(lp4376
I3
aI3
asS'yarn'
p4377
(lp4378
I7
aI7
asS'retain'
p4379
(lp4380
I2
aI2
asS'grieving'
p4381
(lp4382
I2
aI2
asS'finest'
p4383
(lp4384
I7
aI7
asS'elegiac'
p4385
(lp4386
I2
aI2
asS'bogdanovich'
p4387
(lp4388
I4
aI4
asS'embarrassed'
p4389
(lp4390
I2
aI2
asS'puppet'
p4391
(lp4392
I2
aI2
asS'ancient'
p4393
(lp4394
I4
aI4
asS'sadly'
p4395
(lp4396
I9
aI9
asS'vulgar'
p4397
(lp4398
I8
aI8
asS'realistically'
p4399
(lp4400
I4
aI4
asS'self esteem'
p4401
(lp4402
I3
aI3
asS'scant'
p4403
(lp4404
I3
aI3
asS'dreary'
p4405
(lp4406
I13
aI13
asS'loved'
p4407
(lp4408
I9
aI9
asS'pretends'
p4409
(lp4410
I5
aI5
asS'athleticism'
p4411
(lp4412
I2
aI2
asS'imaginative'
p4413
(lp4414
I12
aI12
asS'comfortable'
p4415
(lp4416
I6
aI6
asS'clunker'
p4417
(lp4418
I6
aI4
asS'apparently'
p4419
(lp4420
I10
aI10
asS'davies'
p4421
(lp4422
I2
aI2
asS'concerns'
p4423
(lp4424
I2
aI2
asS'unsettled'
p4425
(lp4426
I2
aI2
asS'unless'
p4427
(lp4428
I7
aI7
asS'disappointments'
p4429
(lp4430
I2
aI2
asS'nicholson'
p4431
(lp4432
I4
aI3
asS'silberling'
p4433
(lp4434
I2
aI2
asS'normally'
p4435
(lp4436
I2
aI2
asS'big budget'
p4437
(lp4438
I4
aI4
asS'absorbing'
p4439
(lp4440
I10
aI10
asS'text'
p4441
(lp4442
I6
aI6
asS"schneider's"
p4443
(lp4444
I2
aI2
asS'fumbles'
p4445
(lp4446
I2
aI2
asS'promisingly'
p4447
(lp4448
I3
aI3
asS'bracing'
p4449
(lp4450
I2
aI2
asS'buying'
p4451
(lp4452
I2
aI2
asS'ambiguity'
p4453
(lp4454
I6
aI6
asS'photography'
p4455
(lp4456
I7
aI7
asS'bear'
p4457
(lp4458
I3
aI3
asS'perfection'
p4459
(lp4460
I5
aI5
asS'by the numbers'
p4461
(lp4462
I6
aI6
asS'motherhood'
p4463
(lp4464
I2
aI2
asS'gibson'
p4465
(lp4466
I4
aI4
asS'cinematically'
p4467
(lp4468
I3
aI3
asS'enhances'
p4469
(lp4470
I2
aI2
asS'showdown'
p4471
(lp4472
I2
aI2
asS'imaginatively'
p4473
(lp4474
I2
aI2
asS'literate'
p4475
(lp4476
I5
aI5
asS'ralph'
p4477
(lp4478
I2
aI2
asS'routine'
p4479
(lp4480
I13
aI13
asS'yawn provoking'
p4481
(lp4482
I2
aI2
asS'sorrow'
p4483
(lp4484
I2
aI2
asS'joke'
p4485
(lp4486
I13
aI12
asS'comment'
p4487
(lp4488
I2
aI2
asS'relevant'
p4489
(lp4490
I2
aI2
asS'teasing'
p4491
(lp4492
I2
aI2
asS'laugh'
p4493
(lp4494
I25
aI24
asS'pratfalls'
p4495
(lp4496
I3
aI3
asS'tremendous'
p4497
(lp4498
I6
aI6
asS'muddy'
p4499
(lp4500
I2
aI2
asS"writers'"
p4501
(lp4502
I2
aI2
asS'napoleon'
p4503
(lp4504
I3
aI3
asS'homes'
p4505
(lp4506
I4
aI4
asS'atmospheric'
p4507
(lp4508
I4
aI4
asS'vapid'
p4509
(lp4510
I3
aI2
asS'plain'
p4511
(lp4512
I11
aI11
asS'appearance'
p4513
(lp4514
I2
aI2
asS'frustrating'
p4515
(lp4516
I11
aI11
asS'arrangements'
p4517
(lp4518
I2
aI2
asS'partner'
p4519
(lp4520
I2
aI2
asS'watchful'
p4521
(lp4522
I2
aI2
asS')'
p4523
(lp4524
I143
aI134
asS'material'
p4525
(lp4526
I52
aI52
asS'novels'
p4527
(lp4528
I2
aI2
asS'sisters'
p4529
(lp4530
I4
aI4
asS"writer's"
p4531
(lp4532
I4
aI4
asS'groans'
p4533
(lp4534
I2
aI2
asS'cl\xe1sico'
p4535
(lp4536
I2
aI2
asS'antonio'
p4537
(lp4538
I2
aI2
asS'oops'
p4539
(lp4540
I3
aI2
asS'creators'
p4541
(lp4542
I2
aI2
asS'usual'
p4543
(lp4544
I21
aI21
asS'domestic'
p4545
(lp4546
I4
aI4
asS'spielberg'
p4547
(lp4548
I9
aI9
asS'arrogant'
p4549
(lp4550
I2
aI2
asS'add'
p4551
(lp4552
I20
aI20
asS'well done'
p4553
(lp4554
I2
aI2
asS'like'
p4555
(lp4556
I430
aI412
asS'vibrant'
p4557
(lp4558
I12
aI12
asS'journalism'
p4559
(lp4560
I2
aI2
asS'works'
p4561
(lp4562
I55
aI55
asS'interludes'
p4563
(lp4564
I2
aI2
asS'convey'
p4565
(lp4566
I4
aI4
asS'stuffs'
p4567
(lp4568
I2
aI2
asS'stuffy'
p4569
(lp4570
I2
aI2
asS'happens'
p4571
(lp4572
I18
aI17
asS'unfunny'
p4573
(lp4574
I14
aI14
asS'billy'
p4575
(lp4576
I3
aI3
asS'assuming'
p4577
(lp4578
I2
aI2
asS'well executed'
p4579
(lp4580
I2
aI2
asS'host'
p4581
(lp4582
I3
aI3
asS'worthy'
p4583
(lp4584
I16
aI16
asS'engendering'
p4585
(lp4586
I2
aI2
asS'marketable'
p4587
(lp4588
I2
aI2
asS'smartly'
p4589
(lp4590
I7
aI6
asS'flat out'
p4591
(lp4592
I2
aI2
asS'guard'
p4593
(lp4594
I2
aI2
asS'gleaned'
p4595
(lp4596
I2
aI2
asS'confident'
p4597
(lp4598
I3
aI3
asS'glimmer'
p4599
(lp4600
I2
aI2
asS'biggest'
p4601
(lp4602
I9
aI9
asS'maze'
p4603
(lp4604
I2
aI2
asS'globe'
p4605
(lp4606
I3
aI3
asS'sequel'
p4607
(lp4608
I24
aI24
asS'co wrote'
p4609
(lp4610
I2
aI2
asS'reminds'
p4611
(lp4612
I6
aI6
asS'editing'
p4613
(lp4614
I12
aI12
asS'glory'
p4615
(lp4616
I4
aI4
asS'j'
p4617
(lp4618
I11
aI11
asS'excruciatingly'
p4619
(lp4620
I2
aI2
asS'pie'
p4621
(lp4622
I3
aI3
asS'one hour'
p4623
(lp4624
I2
aI2
asS'shooting'
p4625
(lp4626
I7
aI7
asS'pit'
p4627
(lp4628
I2
aI2
asS'morton'
p4629
(lp4630
I4
aI4
asS'48'
p4631
(lp4632
I2
aI2
asS'dressed'
p4633
(lp4634
I3
aI3
asS'detail'
p4635
(lp4636
I11
aI11
asS'40'
p4637
(lp4638
I2
aI2
asS'surreal'
p4639
(lp4640
I6
aI6
asS'adam'
p4641
(lp4642
I6
aI6
asS'gloriously'
p4643
(lp4644
I4
aI4
asS'oral'
p4645
(lp4646
I2
aI2
asS"spielberg's"
p4647
(lp4648
I3
aI3
asS'wryly'
p4649
(lp4650
I2
aI2
asS'image'
p4651
(lp4652
I4
aI4
asS"joan's"
p4653
(lp4654
I2
aI2
asS'ill conceived'
p4655
(lp4656
I4
aI4
asS'well constructed'
p4657
(lp4658
I2
aI2
asS'suspenseful'
p4659
(lp4660
I6
aI6
asS'sleep'
p4661
(lp4662
I6
aI6
asS'undisputed'
p4663
(lp4664
I2
aI2
asS'paris'
p4665
(lp4666
I2
aI2
asS'crises'
p4667
(lp4668
I2
aI2
asS'patched'
p4669
(lp4670
I2
aI2
asS'$40'
p4671
(lp4672
I2
aI2
asS'wondrous'
p4673
(lp4674
I2
aI2
asS'risk'
p4675
(lp4676
I2
aI2
asS'every'
p4677
(lp4678
I106
aI104
asS'frailty'
p4679
(lp4680
I6
aI6
asS'school'
p4681
(lp4682
I19
aI18
asS'loneliness'
p4683
(lp4684
I4
aI4
asS'glued'
p4685
(lp4686
I2
aI2
asS'weddings'
p4687
(lp4688
I3
aI3
asS'surrounding'
p4689
(lp4690
I5
aI5
asS'emptiness'
p4691
(lp4692
I6
aI6
asS'expressive'
p4693
(lp4694
I2
aI2
asS'solemn'
p4695
(lp4696
I4
aI4
asS'beaten'
p4697
(lp4698
I3
aI3
asS'plodding'
p4699
(lp4700
I7
aI7
asS'philippe'
p4701
(lp4702
I2
aI2
asS'feisty'
p4703
(lp4704
I2
aI2
asS'one room'
p4705
(lp4706
I2
aI2
asS'represented'
p4707
(lp4708
I3
aI3
asS'settles'
p4709
(lp4710
I3
aI3
asS'prints'
p4711
(lp4712
I2
aI2
asS'tu'
p4713
(lp4714
I2
aI2
asS'clich\xe9d'
p4715
(lp4716
I6
aI6
asS"ritchie's"
p4717
(lp4718
I3
aI3
asS'patience'
p4719
(lp4720
I6
aI6
asS'clich\xe9s'
p4721
(lp4722
I11
aI11
asS'would'
p4723
(lp4724
I138
aI137
asS'mush'
p4725
(lp4726
I2
aI2
asS'grief'
p4727
(lp4728
I15
aI15
asS'ardently'
p4729
(lp4730
I2
aI2
asS'excellent'
p4731
(lp4732
I24
aI24
asS'outdated'
p4733
(lp4734
I3
aI3
asS'mr'
p4735
(lp4736
I42
aI38
asS'grenade'
p4737
(lp4738
I2
aI2
asS'attract'
p4739
(lp4740
I3
aI3
asS'guarantee'
p4741
(lp4742
I2
aI2
asS'writers'
p4743
(lp4744
I5
aI5
asS'badly'
p4745
(lp4746
I13
aI13
asS'elizabeth'
p4747
(lp4748
I2
aI2
asS'claptrap'
p4749
(lp4750
I2
aI2
asS'mess'
p4751
(lp4752
I34
aI33
asS'imaginable'
p4753
(lp4754
I2
aI2
asS'parallel'
p4755
(lp4756
I2
aI2
asS'splendid'
p4757
(lp4758
I7
aI7
asS'hypnotic'
p4759
(lp4760
I3
aI3
asS'complexity'
p4761
(lp4762
I8
aI8
asS'enter'
p4763
(lp4764
I7
aI7
asS'amir'
p4765
(lp4766
I2
aI2
asS'compelling'
p4767
(lp4768
I63
aI63
asS'fade'
p4769
(lp4770
I3
aI3
asS'thought provoking'
p4771
(lp4772
I15
aI15
asS'columbine'
p4773
(lp4774
I3
aI3
asS'shadows'
p4775
(lp4776
I3
aI3
asS'actioner'
p4777
(lp4778
I2
aI2
asS'explode'
p4779
(lp4780
I3
aI3
asS'lasting'
p4781
(lp4782
I2
aI2
asS'psychic'
p4783
(lp4784
I3
aI3
asS'free'
p4785
(lp4786
I12
aI11
asS'masterpiece'
p4787
(lp4788
I16
aI16
asS'paint by numbers'
p4789
(lp4790
I2
aI2
asS'correctness'
p4791
(lp4792
I4
aI4
asS'days'
p4793
(lp4794
I24
aI24
asS'labored'
p4795
(lp4796
I5
aI5
asS'heck'
p4797
(lp4798
I3
aI3
asS'onto'
p4799
(lp4800
I6
aI6
asS'recite'
p4801
(lp4802
I3
aI3
asS'already'
p4803
(lp4804
I24
aI24
asS'fantasy'
p4805
(lp4806
I19
aI19
asS'philosophical'
p4807
(lp4808
I10
aI10
asS'titled'
p4809
(lp4810
I2
aI2
asS'ballistic'
p4811
(lp4812
I5
aI5
asS'wildly'
p4813
(lp4814
I12
aI12
asS'insightful'
p4815
(lp4816
I12
aI12
asS'urban'
p4817
(lp4818
I16
aI16
asS'serve'
p4819
(lp4820
I4
aI4
asS'episodic'
p4821
(lp4822
I3
aI3
asS'roles'
p4823
(lp4824
I9
aI9
asS'relatively'
p4825
(lp4826
I9
aI9
asS'snow'
p4827
(lp4828
I8
aI8
asS'contact'
p4829
(lp4830
I2
aI2
asS'though'
p4831
(lp4832
I103
aI103
asS'glow'
p4833
(lp4834
I3
aI3
asS'devastating'
p4835
(lp4836
I9
aI9
asS'flow'
p4837
(lp4838
I8
aI8
asS'entertaining'
p4839
(lp4840
I77
aI77
asS'saga'
p4841
(lp4842
I6
aI6
asS'queen'
p4843
(lp4844
I9
aI9
asS'spite'
p4845
(lp4846
I3
aI3
asS'pinocchio'
p4847
(lp4848
I11
aI10
asS'claude'
p4849
(lp4850
I3
aI3
asS'situations'
p4851
(lp4852
I9
aI9
asS'half baked'
p4853
(lp4854
I4
aI4
asS'mixture'
p4855
(lp4856
I7
aI7
asS'fluid'
p4857
(lp4858
I4
aI4
asS'unhurried'
p4859
(lp4860
I3
aI3
asS'punching'
p4861
(lp4862
I3
aI3
asS'idiotic'
p4863
(lp4864
I2
aI2
asS'shots'
p4865
(lp4866
I12
aI11
asS'boring'
p4867
(lp4868
I36
aI33
asS'ruins'
p4869
(lp4870
I4
aI4
asS'thanks'
p4871
(lp4872
I19
aI19
asS'swept'
p4873
(lp4874
I3
aI3
asS'1960s'
p4875
(lp4876
I3
aI3
asS'resist'
p4877
(lp4878
I5
aI5
asS'disturbing'
p4879
(lp4880
I11
aI11
asS'temptation'
p4881
(lp4882
I2
aI2
asS'deceptively'
p4883
(lp4884
I6
aI6
asS'hopefully'
p4885
(lp4886
I3
aI3
asS'warmed over'
p4887
(lp4888
I4
aI4
asS'approach'
p4889
(lp4890
I19
aI19
asS'weak'
p4891
(lp4892
I10
aI10
asS"nair's"
p4893
(lp4894
I4
aI4
asS'boss'
p4895
(lp4896
I3
aI3
asS'built in'
p4897
(lp4898
I2
aI2
asS'rhythms'
p4899
(lp4900
I6
aI6
asS'fault'
p4901
(lp4902
I3
aI3
asS'haynes'
p4903
(lp4904
I4
aI4
asS'maudlin'
p4905
(lp4906
I7
aI7
asS'quickly'
p4907
(lp4908
I18
aI18
asS'craft'
p4909
(lp4910
I2
aI2
asS'lessen'
p4911
(lp4912
I2
aI2
asS'n'
p4913
(lp4914
I2
aI2
asS'procedure'
p4915
(lp4916
I2
aI2
asS'no frills'
p4917
(lp4918
I3
aI3
asS'pathology'
p4919
(lp4920
I3
aI3
asS'complex'
p4921
(lp4922
I23
aI23
asS'groundbreaking'
p4923
(lp4924
I2
aI2
asS'forceful'
p4925
(lp4926
I4
aI4
asS'incapable'
p4927
(lp4928
I2
aI2
asS'hearts'
p4929
(lp4930
I8
aI8
asS'jean'
p4931
(lp4932
I3
aI3
asS'cherry'
p4933
(lp4934
I2
aI2
asS'sprinkled'
p4935
(lp4936
I2
aI2
asS'humanity'
p4937
(lp4938
I10
aI10
asS'gave'
p4939
(lp4940
I2
aI2
asS'rumor'
p4941
(lp4942
I2
aI2
asS'dishonest'
p4943
(lp4944
I3
aI3
asS'successfully'
p4945
(lp4946
I4
aI4
asS'combat'
p4947
(lp4948
I4
aI4
asS'ice'
p4949
(lp4950
I8
aI8
asS'everything'
p4951
(lp4952
I45
aI44
asS'surround'
p4953
(lp4954
I2
aI2
asS'sept'
p4955
(lp4956
I2
aI2
asS'duke'
p4957
(lp4958
I4
aI4
asS'primitive'
p4959
(lp4960
I2
aI2
asS'finely'
p4961
(lp4962
I3
aI3
asS'high spirited'
p4963
(lp4964
I2
aI2
asS'unfocused'
p4965
(lp4966
I7
aI7
asS'rollerball'
p4967
(lp4968
I5
aI5
asS'unpretentious'
p4969
(lp4970
I3
aI3
asS'questionable'
p4971
(lp4972
I3
aI3
asS'trivializes'
p4973
(lp4974
I2
aI2
asS'medium'
p4975
(lp4976
I6
aI6
asS"shadyac's"
p4977
(lp4978
I2
aI2
asS'illuminating'
p4979
(lp4980
I3
aI3
asS'sustained'
p4981
(lp4982
I3
aI3
asS'portions'
p4983
(lp4984
I2
aI2
asS'muster'
p4985
(lp4986
I3
aI3
asS'heartwarming'
p4987
(lp4988
I7
aI7
asS'ruined'
p4989
(lp4990
I3
aI3
asS'unfulfilling'
p4991
(lp4992
I2
aI2
asS'nerds'
p4993
(lp4994
I2
aI2
asS'acclaimed'
p4995
(lp4996
I2
aI2
asS'constructed'
p4997
(lp4998
I12
aI12
asS'no'
p4999
(lp5000
I219
aI200
asS'piffle'
p5001
(lp5002
I4
aI3
asS'tim'
p5003
(lp5004
I4
aI4
asS'grasps'
p5005
(lp5006
I2
aI2
asS'nuance'
p5007
(lp5008
I5
aI5
asS'uniformly'
p5009
(lp5010
I3
aI3
asS'juliette'
p5011
(lp5012
I2
aI2
asS'vietnam'
p5013
(lp5014
I4
aI4
asS'serious'
p5015
(lp5016
I26
aI25
asS'particular'
p5017
(lp5018
I8
aI8
asS'sympathetic'
p5019
(lp5020
I8
aI8
asS'remarkably'
p5021
(lp5022
I13
aI13
asS'sloppy'
p5023
(lp5024
I9
aI9
asS'cool'
p5025
(lp5026
I17
aI16
asS'impressive'
p5027
(lp5028
I21
aI21
asS'pore'
p5029
(lp5030
I3
aI3
asS'scripted'
p5031
(lp5032
I4
aI4
asS'taut'
p5033
(lp5034
I2
aI2
asS'slackers'
p5035
(lp5036
I2
aI2
asS'entertain'
p5037
(lp5038
I6
aI6
asS'healthy'
p5039
(lp5040
I2
aI2
asS'proud'
p5041
(lp5042
I3
aI3
asS'gaghan'
p5043
(lp5044
I3
aI3
asS'('
p5045
(lp5046
I141
aI133
asS'gorgeously'
p5047
(lp5048
I3
aI3
asS'emerge'
p5049
(lp5050
I6
aI6
asS'tuxedo'
p5051
(lp5052
I4
aI4
asS'made for tv'
p5053
(lp5054
I2
aI2
asS'vivid'
p5055
(lp5056
I12
aI12
asS'sports'
p5057
(lp5058
I11
aI11
asS'prey'
p5059
(lp5060
I3
aI3
asS'memory'
p5061
(lp5062
I14
aI14
asS'combines'
p5063
(lp5064
I6
aI6
asS'drown'
p5065
(lp5066
I2
aI2
asS'insights'
p5067
(lp5068
I8
aI8
asS'thousands'
p5069
(lp5070
I4
aI4
asS'slightest'
p5071
(lp5072
I2
aI2
asS'garbled'
p5073
(lp5074
I2
aI2
asS'stroke'
p5075
(lp5076
I5
aI5
asS'kosminsky'
p5077
(lp5078
I3
aI3
asS'speaks'
p5079
(lp5080
I8
aI8
asS'heartbreaking'
p5081
(lp5082
I6
aI6
asS'outlandish'
p5083
(lp5084
I3
aI3
asS'drained'
p5085
(lp5086
I2
aI2
asS'amuse'
p5087
(lp5088
I3
aI3
asS'malaise'
p5089
(lp5090
I2
aI2
asS'motions'
p5091
(lp5092
I3
aI3
asS'worship'
p5093
(lp5094
I2
aI2
asS'offers'
p5095
(lp5096
I44
aI44
asS'lonely'
p5097
(lp5098
I3
aI3
asS'conversations'
p5099
(lp5100
I4
aI4
asS'name'
p5101
(lp5102
I14
aI14
asS'realistic'
p5103
(lp5104
I14
aI14
asS'catching'
p5105
(lp5106
I3
aI3
asS'affluent'
p5107
(lp5108
I2
aI2
asS'adequately'
p5109
(lp5110
I3
aI3
asS'flaccid'
p5111
(lp5112
I5
aI5
asS'miyazaki'
p5113
(lp5114
I2
aI2
asS'treading'
p5115
(lp5116
I2
aI2
asS'skillfully'
p5117
(lp5118
I3
aI3
asS'clown'
p5119
(lp5120
I4
aI4
asS'suspend'
p5121
(lp5122
I4
aI4
asS'incongruous'
p5123
(lp5124
I2
aI2
asS'transform'
p5125
(lp5126
I2
aI2
asS'clumsy'
p5127
(lp5128
I7
aI7
asS'inventive'
p5129
(lp5130
I18
aI18
asS'necessarily'
p5131
(lp5132
I6
aI6
asS'returns'
p5133
(lp5134
I6
aI6
asS'masala'
p5135
(lp5136
I2
aI2
asS'circa'
p5137
(lp5138
I2
aI2
asS'gives'
p5139
(lp5140
I47
aI47
asS'seduced'
p5141
(lp5142
I2
aI2
asS'alan'
p5143
(lp5144
I3
aI3
asS'self important'
p5145
(lp5146
I2
aI2
asS'transgressive'
p5147
(lp5148
I2
aI2
asS'enigma'
p5149
(lp5150
I4
aI3
asS'wide'
p5151
(lp5152
I3
aI3
asS"mcgrath's"
p5153
(lp5154
I4
aI4
asS'simpleminded'
p5155
(lp5156
I2
aI2
asS'rent'
p5157
(lp5158
I6
aI6
asS'sorority'
p5159
(lp5160
I6
aI6
asS'betrayal'
p5161
(lp5162
I5
aI5
asS'falls'
p5163
(lp5164
I25
aI25
asS'feardotcom'
p5165
(lp5166
I4
aI4
asS'demographically'
p5167
(lp5168
I2
aI2
asS'misfire'
p5169
(lp5170
I4
aI4
asS'hungry'
p5171
(lp5172
I2
aI2
asS'outrageousness'
p5173
(lp5174
I2
aI2
asS'feminist'
p5175
(lp5176
I3
aI3
asS'recipe'
p5177
(lp5178
I3
aI3
asS'hack'
p5179
(lp5180
I3
aI3
asS'superb'
p5181
(lp5182
I6
aI6
asS'charmless'
p5183
(lp5184
I3
aI3
asS'crime'
p5185
(lp5186
I21
aI20
asS'believing'
p5187
(lp5188
I3
aI3
asS'lighten'
p5189
(lp5190
I2
aI2
asS'dramas'
p5191
(lp5192
I5
aI5
asS'reveals'
p5193
(lp5194
I15
aI15
asS'trick'
p5195
(lp5196
I7
aI7
asS'college'
p5197
(lp5198
I17
aI17
asS'fails'
p5199
(lp5200
I26
aI26
asS'generosity'
p5201
(lp5202
I2
aI2
asS'review'
p5203
(lp5204
I3
aI3
asS'flop'
p5205
(lp5206
I2
aI2
asS'tv movie'
p5207
(lp5208
I2
aI2
asS'wanders'
p5209
(lp5210
I2
aI2
asS'gimmicky'
p5211
(lp5212
I2
aI2
asS'quiet'
p5213
(lp5214
I18
aI18
asS'swaggering'
p5215
(lp5216
I2
aI2
asS'color'
p5217
(lp5218
I6
aI6
asS'pow'
p5219
(lp5220
I9
aI9
asS'pot'
p5221
(lp5222
I3
aI3
asS'tropes'
p5223
(lp5224
I2
aI2
asS'turkey'
p5225
(lp5226
I2
aI2
asS'confessions'
p5227
(lp5228
I3
aI3
asS'standup'
p5229
(lp5230
I2
aI2
asS'attentive'
p5231
(lp5232
I2
aI2
asS'irrelevant'
p5233
(lp5234
I4
aI4
asS'pilot'
p5235
(lp5236
I2
aI2
asS'case'
p5237
(lp5238
I26
aI26
asS'cast'
p5239
(lp5240
I79
aI77
asS'annoying'
p5241
(lp5242
I9
aI9
asS'breathtakingly'
p5243
(lp5244
I3
aI3
asS'reminded'
p5245
(lp5246
I3
aI3
asS'reminder'
p5247
(lp5248
I5
aI5
asS'moronic'
p5249
(lp5250
I3
aI3
asS'deft'
p5251
(lp5252
I4
aI4
asS'applaud'
p5253
(lp5254
I3
aI3
asS'director'
p5255
(lp5256
I137
aI137
asS'devoid'
p5257
(lp5258
I13
aI12
asS'drivel'
p5259
(lp5260
I3
aI3
asS'delicate'
p5261
(lp5262
I11
aI11
asS'weep'
p5263
(lp5264
I3
aI3
asS'cartoon'
p5265
(lp5266
I17
aI17
asS'longing'
p5267
(lp5268
I4
aI4
asS'relief'
p5269
(lp5270
I4
aI4
asS'unconvincing'
p5271
(lp5272
I5
aI5
asS'captures'
p5273
(lp5274
I18
aI18
asS'actress'
p5275
(lp5276
I14
aI14
asS'halfway'
p5277
(lp5278
I6
aI6
asS'hint'
p5279
(lp5280
I2
aI2
asS'seems'
p5281
(lp5282
I72
aI72
asS'except'
p5283
(lp5284
I13
aI13
asS'feminism'
p5285
(lp5286
I2
aI2
asS'styles'
p5287
(lp5288
I2
aI2
asS'kills'
p5289
(lp5290
I3
aI3
asS'exquisitely'
p5291
(lp5292
I4
aI4
asS'oddly'
p5293
(lp5294
I10
aI10
asS'substandard'
p5295
(lp5296
I2
aI2
asS'overheated'
p5297
(lp5298
I2
aI2
asS'intact'
p5299
(lp5300
I3
aI3
asS'redeeming'
p5301
(lp5302
I3
aI3
asS'slice'
p5303
(lp5304
I14
aI14
asS'mood'
p5305
(lp5306
I15
aI15
asS'showtime'
p5307
(lp5308
I8
aI8
asS'provides'
p5309
(lp5310
I17
aI17
asS'metropolis'
p5311
(lp5312
I7
aI6
asS'stereotypes'
p5313
(lp5314
I9
aI9
asS'oh'
p5315
(lp5316
I6
aI6
asS'stand'
p5317
(lp5318
I17
aI17
asS'doze'
p5319
(lp5320
I3
aI3
asS'determine'
p5321
(lp5322
I2
aI2
asS'backdrops'
p5323
(lp5324
I2
aI2
asS'mixed up'
p5325
(lp5326
I2
aI2
asS'racism'
p5327
(lp5328
I2
aI2
asS'racist'
p5329
(lp5330
I3
aI3
asS'cultures'
p5331
(lp5332
I7
aI7
asS'valley'
p5333
(lp5334
I2
aI2
asS'toilet'
p5335
(lp5336
I3
aI3
asS'taylor'
p5337
(lp5338
I2
aI2
asS'cinema'
p5339
(lp5340
I41
aI41
asS'taste'
p5341
(lp5342
I20
aI20
asS'bleakly'
p5343
(lp5344
I2
aI2
asS'off putting'
p5345
(lp5346
I3
aI3
asS'tasty'
p5347
(lp5348
I8
aI8
asS'idiot'
p5349
(lp5350
I2
aI2
asS'deserve'
p5351
(lp5352
I10
aI10
asS'briefly'
p5353
(lp5354
I2
aI2
asS'separate'
p5355
(lp5356
I4
aI4
asS'finale'
p5357
(lp5358
I6
aI6
asS'perry'
p5359
(lp5360
I3
aI3
asS'complications'
p5361
(lp5362
I3
aI3
asS'calls'
p5363
(lp5364
I3
aI3
asS'odds'
p5365
(lp5366
I6
aI6
asS'exhausting'
p5367
(lp5368
I2
aI2
asS'fish out of water'
p5369
(lp5370
I2
aI2
asS'numbing'
p5371
(lp5372
I3
aI3
asS'chinese'
p5373
(lp5374
I6
aI6
asS'scrappy'
p5375
(lp5376
I2
aI2
asS'lack'
p5377
(lp5378
I35
aI35
asS'meditation'
p5379
(lp5380
I14
aI14
asS'glimpse'
p5381
(lp5382
I10
aI10
asS'remarkable'
p5383
(lp5384
I18
aI18
asS'numbingly'
p5385
(lp5386
I3
aI3
asS'sparkling'
p5387
(lp5388
I6
aI6
asS'worse'
p5389
(lp5390
I22
aI22
asS'sons'
p5391
(lp5392
I2
aI2
asS'worst'
p5393
(lp5394
I37
aI36
asS'prolonged'
p5395
(lp5396
I2
aI2
asS'undone'
p5397
(lp5398
I3
aI3
asS'ten'
p5399
(lp5400
I3
aI3
asS'rate'
p5401
(lp5402
I2
aI2
asS'invention'
p5403
(lp5404
I4
aI4
asS'self congratulation'
p5405
(lp5406
I2
aI2
asS'laughably'
p5407
(lp5408
I3
aI3
asS'deeply'
p5409
(lp5410
I25
aI25
asS'sum'
p5411
(lp5412
I8
aI8
asS'discern'
p5413
(lp5414
I2
aI2
asS'guns'
p5415
(lp5416
I6
aI6
asS'condensed'
p5417
(lp5418
I2
aI2
asS'extraordinary'
p5419
(lp5420
I6
aI6
asS'resurrection'
p5421
(lp5422
I2
aI2
asS'allows'
p5423
(lp5424
I11
aI11
asS'tumult'
p5425
(lp5426
I3
aI3
asS'self loathing'
p5427
(lp5428
I2
aI2
asS'implausible'
p5429
(lp5430
I8
aI8
asS'forcefully'
p5431
(lp5432
I3
aI3
asS'flat'
p5433
(lp5434
I22
aI22
asS'flaw'
p5435
(lp5436
I3
aI3
asS'knows'
p5437
(lp5438
I22
aI20
asS'misogyny'
p5439
(lp5440
I2
aI2
asS'open ended'
p5441
(lp5442
I3
aI3
asS'overwrought'
p5443
(lp5444
I11
aI11
asS'imitation'
p5445
(lp5446
I4
aI4
asS'simplicity'
p5447
(lp5448
I3
aI3
asS'orbits'
p5449
(lp5450
I2
aI2
asS'reflect'
p5451
(lp5452
I3
aI3
asS'adventure'
p5453
(lp5454
I29
aI28
asS'capitalize'
p5455
(lp5456
I2
aI2
asS'shortcomings'
p5457
(lp5458
I2
aI2
asS'short'
p5459
(lp5460
I38
aI38
asS'tsai'
p5461
(lp5462
I6
aI6
asS'generic'
p5463
(lp5464
I14
aI14
asS'shore'
p5465
(lp5466
I2
aI2
asS'proverbial'
p5467
(lp5468
I2
aI2
asS'style'
p5469
(lp5470
I40
aI40
asS'harmless'
p5471
(lp5472
I6
aI6
asS'might'
p5473
(lp5474
I96
aI96
asS'return'
p5475
(lp5476
I14
aI14
asS'framework'
p5477
(lp5478
I2
aI2
asS'huskies'
p5479
(lp5480
I2
aI2
asS'day lewis'
p5481
(lp5482
I2
aI2
asS'scarcely'
p5483
(lp5484
I3
aI3
asS'grandeur'
p5485
(lp5486
I7
aI7
asS'inherent'
p5487
(lp5488
I6
aI6
asS'friendship'
p5489
(lp5490
I13
aI13
asS'weighs'
p5491
(lp5492
I3
aI3
asS'rehashes'
p5493
(lp5494
I2
aI2
asS'weight'
p5495
(lp5496
I10
aI10
asS'generation'
p5497
(lp5498
I8
aI7
asS'scratching'
p5499
(lp5500
I2
aI2
asS'hartley'
p5501
(lp5502
I2
aI2
asS'wondered'
p5503
(lp5504
I3
aI3
asS'glitter'
p5505
(lp5506
I2
aI2
asS'induces'
p5507
(lp5508
I2
aI2
asS'self awareness'
p5509
(lp5510
I2
aI2
asS'health'
p5511
(lp5512
I2
aI2
asS'soulless'
p5513
(lp5514
I6
aI6
asS'friday'
p5515
(lp5516
I12
aI11
asS'enveloping'
p5517
(lp5518
I2
aI2
asS'generate'
p5519
(lp5520
I4
aI4
asS'thrown'
p5521
(lp5522
I6
aI6
asS'jez'
p5523
(lp5524
I2
aI2
asS'prejudice'
p5525
(lp5526
I3
aI3
asS'fallen'
p5527
(lp5528
I2
aI2
asS'bland'
p5529
(lp5530
I19
aI19
asS'scathing'
p5531
(lp5532
I3
aI3
asS'script'
p5533
(lp5534
I79
aI79
asS'grimy'
p5535
(lp5536
I2
aI2
asS'syrup'
p5537
(lp5538
I3
aI3
asS'store'
p5539
(lp5540
I5
aI5
asS'imperfect'
p5541
(lp5542
I2
aI2
asS'scooby'
p5543
(lp5544
I6
aI6
asS'$9'
p5545
(lp5546
I2
aI2
asS'convinced'
p5547
(lp5548
I4
aI4
asS'ayurveda'
p5549
(lp5550
I2
aI2
asS'stale'
p5551
(lp5552
I10
aI10
asS'risky'
p5553
(lp5554
I3
aI3
asS'outstanding'
p5555
(lp5556
I3
aI3
asS'decadent'
p5557
(lp5558
I2
aI2
asS'wilson'
p5559
(lp5560
I4
aI4
asS'pianist'
p5561
(lp5562
I4
aI4
asS'buff'
p5563
(lp5564
I2
aI2
asS'unremarkable'
p5565
(lp5566
I2
aI2
asS'reach'
p5567
(lp5568
I9
aI9
asS'nothing'
p5569
(lp5570
I94
aI93
asS'screenwriter'
p5571
(lp5572
I10
aI10
asS'traditional'
p5573
(lp5574
I6
aI6
asS'pleasingly'
p5575
(lp5576
I2
aI2
asS'triangle'
p5577
(lp5578
I3
aI3
asS"shreve's"
p5579
(lp5580
I2
aI2
asS'affability'
p5581
(lp5582
I2
aI2
asS'activity'
p5583
(lp5584
I2
aI2
asS'consciously'
p5585
(lp5586
I2
aI2
asS'art'
p5587
(lp5588
I44
aI42
asS'recording'
p5589
(lp5590
I3
aI3
asS'distinctive'
p5591
(lp5592
I7
aI7
asS'corruption'
p5593
(lp5594
I3
aI3
asS'latin'
p5595
(lp5596
I2
aI2
asS'lyrical'
p5597
(lp5598
I5
aI5
asS'flies'
p5599
(lp5600
I2
aI2
asS'flavorless'
p5601
(lp5602
I2
aI2
asS'distress'
p5603
(lp5604
I2
aI2
asS'sweet'
p5605
(lp5606
I41
aI41
asS'unforced'
p5607
(lp5608
I3
aI3
asS'startling'
p5609
(lp5610
I5
aI5
asS'romantic comedy'
p5611
(lp5612
I2
aI2
asS'political'
p5613
(lp5614
I24
aI24
asS'appears'
p5615
(lp5616
I11
aI11
asS'pa'
p5617
(lp5618
I2
aI2
asS'sending'
p5619
(lp5620
I2
aI2
asS'rip'
p5621
(lp5622
I2
aI2
asS'quaid'
p5623
(lp5624
I2
aI2
asS'awakening'
p5625
(lp5626
I2
aI2
asS'lengthy'
p5627
(lp5628
I2
aI2
asS'cantet'
p5629
(lp5630
I2
aI2
asS'delicious'
p5631
(lp5632
I5
aI5
asS'moving'
p5633
(lp5634
I44
aI44
asS'lower'
p5635
(lp5636
I3
aI3
asS'solemnity'
p5637
(lp5638
I2
aI2
asS'bounces'
p5639
(lp5640
I2
aI2
asS'dared'
p5641
(lp5642
I2
aI2
asS'cheer'
p5643
(lp5644
I3
aI3
asS'throwaway'
p5645
(lp5646
I2
aI2
asS'questions'
p5647
(lp5648
I12
aI12
asS'likeable'
p5649
(lp5650
I4
aI4
asS'joyless'
p5651
(lp5652
I3
aI3
asS'moody'
p5653
(lp5654
I6
aI6
asS'confront'
p5655
(lp5656
I2
aI2
asS'ignore'
p5657
(lp5658
I3
aI2
asS'exploiting'
p5659
(lp5660
I3
aI2
asS'unendurable'
p5661
(lp5662
I2
aI2
asS'essential'
p5663
(lp5664
I2
aI2
asS'anti catholic'
p5665
(lp5666
I2
aI2
asS'sprightly'
p5667
(lp5668
I3
aI3
asS'marcus'
p5669
(lp5670
I2
aI2
asS'market'
p5671
(lp5672
I6
aI6
asS'anne'
p5673
(lp5674
I6
aI6
asS'porridge'
p5675
(lp5676
I2
aI2
asS'telegraphed'
p5677
(lp5678
I2
aI2
asS'intense'
p5679
(lp5680
I13
aI13
asS'naivet\xe9'
p5681
(lp5682
I2
aI2
asS'rote'
p5683
(lp5684
I6
aI6
asS'lifeless'
p5685
(lp5686
I7
aI7
asS'range'
p5687
(lp5688
I2
aI2
asS'impresses'
p5689
(lp5690
I2
aI2
asS'analyze'
p5691
(lp5692
I3
aI3
asS'repeatedly'
p5693
(lp5694
I2
aI2
asS'delta'
p5695
(lp5696
I2
aI2
asS'junior'
p5697
(lp5698
I2
aI2
asS'raising'
p5699
(lp5700
I2
aI2
asS'4ever'
p5701
(lp5702
I4
aI4
asS"hasn't"
p5703
(lp5704
I14
aI14
asS'friel'
p5705
(lp5706
I3
aI3
asS'highlight'
p5707
(lp5708
I2
aI2
asS'steeped'
p5709
(lp5710
I4
aI4
asS'warning'
p5711
(lp5712
I4
aI4
asS'rally'
p5713
(lp5714
I2
aI2
asS'graham'
p5715
(lp5716
I3
aI3
asS'peace'
p5717
(lp5718
I2
aI2
asS"wertmuller's"
p5719
(lp5720
I3
aI3
asS"weaver's"
p5721
(lp5722
I2
aI2
asS'tomcats'
p5723
(lp5724
I2
aI2
asS'suffers'
p5725
(lp5726
I21
aI21
asS'rushed'
p5727
(lp5728
I2
aI2
asS'nash'
p5729
(lp5730
I2
aI2
asS'winds'
p5731
(lp5732
I9
aI9
asS'issues'
p5733
(lp5734
I13
aI12
asS"hill's"
p5735
(lp5736
I2
aI2
asS'incoherent'
p5737
(lp5738
I8
aI8
asS'tenderness'
p5739
(lp5740
I4
aI4
asS'smaller'
p5741
(lp5742
I2
aI2
asS'gripping'
p5743
(lp5744
I15
aI15
asS"you'd"
p5745
(lp5746
I22
aI22
asS'sensation'
p5747
(lp5748
I2
aI2
asS'reunion'
p5749
(lp5750
I3
aI3
asS"man's"
p5751
(lp5752
I11
aI11
asS'sexy'
p5753
(lp5754
I15
aI15
asS'melodramas'
p5755
(lp5756
I2
aI2
asS'spiced'
p5757
(lp5758
I3
aI3
asS'goofball'
p5759
(lp5760
I2
aI2
asS'apt'
p5761
(lp5762
I2
aI2
asS'&'
p5763
(lp5764
I8
aI8
asS'idiots'
p5765
(lp5766
I3
aI3
asS'examination'
p5767
(lp5768
I16
aI16
asS'posturing'
p5769
(lp5770
I2
aI2
asS'equate'
p5771
(lp5772
I2
aI2
asS'bittersweet'
p5773
(lp5774
I7
aI7
asS'tootsie'
p5775
(lp5776
I2
aI2
asS'rapt'
p5777
(lp5778
I2
aI2
asS'something'
p5779
(lp5780
I106
aI101
asS'sit'
p5781
(lp5782
I23
aI23
asS'buoyant'
p5783
(lp5784
I7
aI7
asS'six'
p5785
(lp5786
I6
aI6
asS'instead'
p5787
(lp5788
I39
aI39
asS'cliched'
p5789
(lp5790
I6
aI6
asS"reggio's"
p5791
(lp5792
I4
aI4
asS'infantile'
p5793
(lp5794
I4
aI3
asS'interrupted'
p5795
(lp5796
I2
aI2
asS'demme'
p5797
(lp5798
I2
aI2
asS'looks'
p5799
(lp5800
I33
aI33
asS'glee'
p5801
(lp5802
I2
aI2
asS'crass'
p5803
(lp5804
I6
aI6
asS'feast'
p5805
(lp5806
I6
aI6
asS'erratic'
p5807
(lp5808
I2
aI2
asS'tepid'
p5809
(lp5810
I4
aI4
asS'category'
p5811
(lp5812
I7
aI7
asS'performs'
p5813
(lp5814
I2
aI2
asS'maintains'
p5815
(lp5816
I9
aI9
asS'g'
p5817
(lp5818
I5
aI4
asS'plainly'
p5819
(lp5820
I2
aI2
asS'listless'
p5821
(lp5822
I9
aI9
asS"doesn't"
p5823
(lp5824
I144
aI141
asS'accent'
p5825
(lp5826
I6
aI6
asS'snore'
p5827
(lp5828
I2
aI2
asS'badness'
p5829
(lp5830
I2
aI2
asS'shallow'
p5831
(lp5832
I10
aI10
asS'late night'
p5833
(lp5834
I2
aI2
asS'isolation'
p5835
(lp5836
I3
aI3
asS'infectious'
p5837
(lp5838
I4
aI4
asS'blip'
p5839
(lp5840
I2
aI2
asS'florid'
p5841
(lp5842
I2
aI2
asS'willful'
p5843
(lp5844
I2
aI2
asS'martha'
p5845
(lp5846
I8
aI7
asS'='
p5847
(lp5848
I3
aI2
asS'deny'
p5849
(lp5850
I3
aI3
asS'refreshing'
p5851
(lp5852
I9
aI9
asS'bug eyed'
p5853
(lp5854
I2
aI2
asS'tambor'
p5855
(lp5856
I2
aI2
asS'inane'
p5857
(lp5858
I9
aI9
asS'pleaser'
p5859
(lp5860
I2
aI2
asS'purely'
p5861
(lp5862
I4
aI4
asS'demons'
p5863
(lp5864
I4
aI4
asS'utter'
p5865
(lp5866
I6
aI6
asS'debate'
p5867
(lp5868
I5
aI5
asS'bogged'
p5869
(lp5870
I3
aI3
asS'cube'
p5871
(lp5872
I4
aI4
asS'watching'
p5873
(lp5874
I78
aI74
asS'ghetto'
p5875
(lp5876
I5
aI5
asS'get go'
p5877
(lp5878
I2
aI2
asS'noyce'
p5879
(lp5880
I4
aI4
asS'crude'
p5881
(lp5882
I6
aI6
asS'ability'
p5883
(lp5884
I12
aI12
asS'embarrassment'
p5885
(lp5886
I8
aI8
asS'spoil'
p5887
(lp5888
I2
aI2
asS'probing'
p5889
(lp5890
I2
aI2
asS'paradoxically'
p5891
(lp5892
I2
aI2
asS'grain'
p5893
(lp5894
I2
aI2
asS'unclear'
p5895
(lp5896
I2
aI2
asS'respect'
p5897
(lp5898
I11
aI10
asS'counterculture'
p5899
(lp5900
I2
aI2
asS'sufficient'
p5901
(lp5902
I3
aI3
asS'[t]he'
p5903
(lp5904
I3
aI3
asS'repetition'
p5905
(lp5906
I3
aI3
asS'unlike'
p5907
(lp5908
I13
aI13
asS'choices'
p5909
(lp5910
I10
aI9
asS'stunning'
p5911
(lp5912
I10
aI10
asS'trotting'
p5913
(lp5914
I2
aI2
asS'spirited'
p5915
(lp5916
I4
aI4
asS'conceived'
p5917
(lp5918
I2
aI2
asS'fiennes'
p5919
(lp5920
I3
aI3
asS'student'
p5921
(lp5922
I2
aI2
asS'enamored'
p5923
(lp5924
I2
aI2
asS'riveted'
p5925
(lp5926
I2
aI2
asS'happiness'
p5927
(lp5928
I3
aI3
asS'rapid'
p5929
(lp5930
I2
aI2
asS'point'
p5931
(lp5932
I52
aI51
asS'pitch perfect'
p5933
(lp5934
I2
aI2
asS'captivating'
p5935
(lp5936
I6
aI6
asS'masquerade'
p5937
(lp5938
I2
aI2
asS'knockaround'
p5939
(lp5940
I3
aI3
asS'facial'
p5941
(lp5942
I3
aI3
asS'coincidence'
p5943
(lp5944
I3
aI3
asS'loses'
p5945
(lp5946
I12
aI12
asS'january'
p5947
(lp5948
I2
aI2
asS'repressed'
p5949
(lp5950
I3
aI3
asS'growth'
p5951
(lp5952
I3
aI3
asS'leaden'
p5953
(lp5954
I4
aI4
asS'glacial'
p5955
(lp5956
I2
aI2
asS'reveal'
p5957
(lp5958
I3
aI3
asS'astounding'
p5959
(lp5960
I3
aI3
asS'rare'
p5961
(lp5962
I24
aI24
asS'universe'
p5963
(lp5964
I2
aI2
asS'unlikable'
p5965
(lp5966
I3
aI3
asS'polished'
p5967
(lp5968
I7
aI7
asS'weather'
p5969
(lp5970
I2
aI2
asS'poetically'
p5971
(lp5972
I2
aI2
asS'van'
p5973
(lp5974
I8
aI8
asS'vat'
p5975
(lp5976
I2
aI2
asS'goose'
p5977
(lp5978
I2
aI2
asS'made'
p5979
(lp5980
I112
aI111
asS'tactics'
p5981
(lp5982
I3
aI3
asS'veneer'
p5983
(lp5984
I4
aI4
asS'horrific'
p5985
(lp5986
I2
aI2
asS'authenticity'
p5987
(lp5988
I2
aI2
asS'uptight'
p5989
(lp5990
I2
aI2
asS'incredible'
p5991
(lp5992
I3
aI3
asS'junk'
p5993
(lp5994
I8
aI8
asS'[director]'
p5995
(lp5996
I2
aI2
asS'insipid'
p5997
(lp5998
I3
aI3
asS'volumes'
p5999
(lp6000
I3
aI3
as.